((lp1
(dp2
S'max_width_ratio'
p3
F0
sS'max_height_ratio'
p4
F0
sS'min_width_ratio'
p5
F0
sS'min_height_ratio'
p6
F0
sa(dp7
g3
F0
sg4
F0
sg5
F0
sg6
F0.20000000000000001
sa(dp8
g3
F0
sg4
F0
sg5
F0
sg6
F0.40000000000000002
sa(dp9
g3
F0
sg4
F0
sg5
F0
sg6
F0.59999999999999998
sa(dp10
g3
F0
sg4
F0
sg5
F0
sg6
F0.80000000000000004
sa(dp11
g3
F0
sg4
F0
sg5
F0
sg6
F1
sa(dp12
g3
F0
sg4
F0
sg5
F0.20000000000000001
sg6
F0
sa(dp13
g3
F0
sg4
F0
sg5
F0.20000000000000001
sg6
F0.20000000000000001
sa(dp14
g3
F0
sg4
F0
sg5
F0.20000000000000001
sg6
F0.40000000000000002
sa(dp15
g3
F0
sg4
F0
sg5
F0.20000000000000001
sg6
F0.59999999999999998
sa(dp16
g3
F0
sg4
F0
sg5
F0.20000000000000001
sg6
F0.80000000000000004
sa(dp17
g3
F0
sg4
F0
sg5
F0.20000000000000001
sg6
F1
sa(dp18
g3
F0
sg4
F0
sg5
F0.40000000000000002
sg6
F0
sa(dp19
g3
F0
sg4
F0
sg5
F0.40000000000000002
sg6
F0.20000000000000001
sa(dp20
g3
F0
sg4
F0
sg5
F0.40000000000000002
sg6
F0.40000000000000002
sa(dp21
g3
F0
sg4
F0
sg5
F0.40000000000000002
sg6
F0.59999999999999998
sa(dp22
g3
F0
sg4
F0
sg5
F0.40000000000000002
sg6
F0.80000000000000004
sa(dp23
g3
F0
sg4
F0
sg5
F0.40000000000000002
sg6
F1
sa(dp24
g3
F0
sg4
F0
sg5
F0.59999999999999998
sg6
F0
sa(dp25
g3
F0
sg4
F0
sg5
F0.59999999999999998
sg6
F0.20000000000000001
sa(dp26
g3
F0
sg4
F0
sg5
F0.59999999999999998
sg6
F0.40000000000000002
sa(dp27
g3
F0
sg4
F0
sg5
F0.59999999999999998
sg6
F0.59999999999999998
sa(dp28
g3
F0
sg4
F0
sg5
F0.59999999999999998
sg6
F0.80000000000000004
sa(dp29
g3
F0
sg4
F0
sg5
F0.59999999999999998
sg6
F1
sa(dp30
g3
F0
sg4
F0
sg5
F0.80000000000000004
sg6
F0
sa(dp31
g3
F0
sg4
F0
sg5
F0.80000000000000004
sg6
F0.20000000000000001
sa(dp32
g3
F0
sg4
F0
sg5
F0.80000000000000004
sg6
F0.40000000000000002
sa(dp33
g3
F0
sg4
F0
sg5
F0.80000000000000004
sg6
F0.59999999999999998
sa(dp34
g3
F0
sg4
F0
sg5
F0.80000000000000004
sg6
F0.80000000000000004
sa(dp35
g3
F0
sg4
F0
sg5
F0.80000000000000004
sg6
F1
sa(dp36
g3
F0
sg4
F0
sg5
F1
sg6
F0
sa(dp37
g3
F0
sg4
F0
sg5
F1
sg6
F0.20000000000000001
sa(dp38
g3
F0
sg4
F0
sg5
F1
sg6
F0.40000000000000002
sa(dp39
g3
F0
sg4
F0
sg5
F1
sg6
F0.59999999999999998
sa(dp40
g3
F0
sg4
F0
sg5
F1
sg6
F0.80000000000000004
sa(dp41
g3
F0
sg4
F0
sg5
F1
sg6
F1
sa(dp42
g3
F0
sg4
F0.20000000000000001
sg5
F0
sg6
F0
sa(dp43
g3
F0
sg4
F0.20000000000000001
sg5
F0
sg6
F0.20000000000000001
sa(dp44
g3
F0
sg4
F0.20000000000000001
sg5
F0
sg6
F0.40000000000000002
sa(dp45
g3
F0
sg4
F0.20000000000000001
sg5
F0
sg6
F0.59999999999999998
sa(dp46
g3
F0
sg4
F0.20000000000000001
sg5
F0
sg6
F0.80000000000000004
sa(dp47
g3
F0
sg4
F0.20000000000000001
sg5
F0
sg6
F1
sa(dp48
g3
F0
sg4
F0.20000000000000001
sg5
F0.20000000000000001
sg6
F0
sa(dp49
g3
F0
sg4
F0.20000000000000001
sg5
F0.20000000000000001
sg6
F0.20000000000000001
sa(dp50
g3
F0
sg4
F0.20000000000000001
sg5
F0.20000000000000001
sg6
F0.40000000000000002
sa(dp51
g3
F0
sg4
F0.20000000000000001
sg5
F0.20000000000000001
sg6
F0.59999999999999998
sa(dp52
g3
F0
sg4
F0.20000000000000001
sg5
F0.20000000000000001
sg6
F0.80000000000000004
sa(dp53
g3
F0
sg4
F0.20000000000000001
sg5
F0.20000000000000001
sg6
F1
sa(dp54
g3
F0
sg4
F0.20000000000000001
sg5
F0.40000000000000002
sg6
F0
sa(dp55
g3
F0
sg4
F0.20000000000000001
sg5
F0.40000000000000002
sg6
F0.20000000000000001
sa(dp56
g3
F0
sg4
F0.20000000000000001
sg5
F0.40000000000000002
sg6
F0.40000000000000002
sa(dp57
g3
F0
sg4
F0.20000000000000001
sg5
F0.40000000000000002
sg6
F0.59999999999999998
sa(dp58
g3
F0
sg4
F0.20000000000000001
sg5
F0.40000000000000002
sg6
F0.80000000000000004
sa(dp59
g3
F0
sg4
F0.20000000000000001
sg5
F0.40000000000000002
sg6
F1
sa(dp60
g3
F0
sg4
F0.20000000000000001
sg5
F0.59999999999999998
sg6
F0
sa(dp61
g3
F0
sg4
F0.20000000000000001
sg5
F0.59999999999999998
sg6
F0.20000000000000001
sa(dp62
g3
F0
sg4
F0.20000000000000001
sg5
F0.59999999999999998
sg6
F0.40000000000000002
sa(dp63
g3
F0
sg4
F0.20000000000000001
sg5
F0.59999999999999998
sg6
F0.59999999999999998
sa(dp64
g3
F0
sg4
F0.20000000000000001
sg5
F0.59999999999999998
sg6
F0.80000000000000004
sa(dp65
g3
F0
sg4
F0.20000000000000001
sg5
F0.59999999999999998
sg6
F1
sa(dp66
g3
F0
sg4
F0.20000000000000001
sg5
F0.80000000000000004
sg6
F0
sa(dp67
g3
F0
sg4
F0.20000000000000001
sg5
F0.80000000000000004
sg6
F0.20000000000000001
sa(dp68
g3
F0
sg4
F0.20000000000000001
sg5
F0.80000000000000004
sg6
F0.40000000000000002
sa(dp69
g3
F0
sg4
F0.20000000000000001
sg5
F0.80000000000000004
sg6
F0.59999999999999998
sa(dp70
g3
F0
sg4
F0.20000000000000001
sg5
F0.80000000000000004
sg6
F0.80000000000000004
sa(dp71
g3
F0
sg4
F0.20000000000000001
sg5
F0.80000000000000004
sg6
F1
sa(dp72
g3
F0
sg4
F0.20000000000000001
sg5
F1
sg6
F0
sa(dp73
g3
F0
sg4
F0.20000000000000001
sg5
F1
sg6
F0.20000000000000001
sa(dp74
g3
F0
sg4
F0.20000000000000001
sg5
F1
sg6
F0.40000000000000002
sa(dp75
g3
F0
sg4
F0.20000000000000001
sg5
F1
sg6
F0.59999999999999998
sa(dp76
g3
F0
sg4
F0.20000000000000001
sg5
F1
sg6
F0.80000000000000004
sa(dp77
g3
F0
sg4
F0.20000000000000001
sg5
F1
sg6
F1
sa(dp78
g3
F0
sg4
F0.40000000000000002
sg5
F0
sg6
F0
sa(dp79
g3
F0
sg4
F0.40000000000000002
sg5
F0
sg6
F0.20000000000000001
sa(dp80
g3
F0
sg4
F0.40000000000000002
sg5
F0
sg6
F0.40000000000000002
sa(dp81
g3
F0
sg4
F0.40000000000000002
sg5
F0
sg6
F0.59999999999999998
sa(dp82
g3
F0
sg4
F0.40000000000000002
sg5
F0
sg6
F0.80000000000000004
sa(dp83
g3
F0
sg4
F0.40000000000000002
sg5
F0
sg6
F1
sa(dp84
g3
F0
sg4
F0.40000000000000002
sg5
F0.20000000000000001
sg6
F0
sa(dp85
g3
F0
sg4
F0.40000000000000002
sg5
F0.20000000000000001
sg6
F0.20000000000000001
sa(dp86
g3
F0
sg4
F0.40000000000000002
sg5
F0.20000000000000001
sg6
F0.40000000000000002
sa(dp87
g3
F0
sg4
F0.40000000000000002
sg5
F0.20000000000000001
sg6
F0.59999999999999998
sa(dp88
g3
F0
sg4
F0.40000000000000002
sg5
F0.20000000000000001
sg6
F0.80000000000000004
sa(dp89
g3
F0
sg4
F0.40000000000000002
sg5
F0.20000000000000001
sg6
F1
sa(dp90
g3
F0
sg4
F0.40000000000000002
sg5
F0.40000000000000002
sg6
F0
sa(dp91
g3
F0
sg4
F0.40000000000000002
sg5
F0.40000000000000002
sg6
F0.20000000000000001
sa(dp92
g3
F0
sg4
F0.40000000000000002
sg5
F0.40000000000000002
sg6
F0.40000000000000002
sa(dp93
g3
F0
sg4
F0.40000000000000002
sg5
F0.40000000000000002
sg6
F0.59999999999999998
sa(dp94
g3
F0
sg4
F0.40000000000000002
sg5
F0.40000000000000002
sg6
F0.80000000000000004
sa(dp95
g3
F0
sg4
F0.40000000000000002
sg5
F0.40000000000000002
sg6
F1
sa(dp96
g3
F0
sg4
F0.40000000000000002
sg5
F0.59999999999999998
sg6
F0
sa(dp97
g3
F0
sg4
F0.40000000000000002
sg5
F0.59999999999999998
sg6
F0.20000000000000001
sa(dp98
g3
F0
sg4
F0.40000000000000002
sg5
F0.59999999999999998
sg6
F0.40000000000000002
sa(dp99
g3
F0
sg4
F0.40000000000000002
sg5
F0.59999999999999998
sg6
F0.59999999999999998
sa(dp100
g3
F0
sg4
F0.40000000000000002
sg5
F0.59999999999999998
sg6
F0.80000000000000004
sa(dp101
g3
F0
sg4
F0.40000000000000002
sg5
F0.59999999999999998
sg6
F1
sa(dp102
g3
F0
sg4
F0.40000000000000002
sg5
F0.80000000000000004
sg6
F0
sa(dp103
g3
F0
sg4
F0.40000000000000002
sg5
F0.80000000000000004
sg6
F0.20000000000000001
sa(dp104
g3
F0
sg4
F0.40000000000000002
sg5
F0.80000000000000004
sg6
F0.40000000000000002
sa(dp105
g3
F0
sg4
F0.40000000000000002
sg5
F0.80000000000000004
sg6
F0.59999999999999998
sa(dp106
g3
F0
sg4
F0.40000000000000002
sg5
F0.80000000000000004
sg6
F0.80000000000000004
sa(dp107
g3
F0
sg4
F0.40000000000000002
sg5
F0.80000000000000004
sg6
F1
sa(dp108
g3
F0
sg4
F0.40000000000000002
sg5
F1
sg6
F0
sa(dp109
g3
F0
sg4
F0.40000000000000002
sg5
F1
sg6
F0.20000000000000001
sa(dp110
g3
F0
sg4
F0.40000000000000002
sg5
F1
sg6
F0.40000000000000002
sa(dp111
g3
F0
sg4
F0.40000000000000002
sg5
F1
sg6
F0.59999999999999998
sa(dp112
g3
F0
sg4
F0.40000000000000002
sg5
F1
sg6
F0.80000000000000004
sa(dp113
g3
F0
sg4
F0.40000000000000002
sg5
F1
sg6
F1
sa(dp114
g3
F0
sg4
F0.59999999999999998
sg5
F0
sg6
F0
sa(dp115
g3
F0
sg4
F0.59999999999999998
sg5
F0
sg6
F0.20000000000000001
sa(dp116
g3
F0
sg4
F0.59999999999999998
sg5
F0
sg6
F0.40000000000000002
sa(dp117
g3
F0
sg4
F0.59999999999999998
sg5
F0
sg6
F0.59999999999999998
sa(dp118
g3
F0
sg4
F0.59999999999999998
sg5
F0
sg6
F0.80000000000000004
sa(dp119
g3
F0
sg4
F0.59999999999999998
sg5
F0
sg6
F1
sa(dp120
g3
F0
sg4
F0.59999999999999998
sg5
F0.20000000000000001
sg6
F0
sa(dp121
g3
F0
sg4
F0.59999999999999998
sg5
F0.20000000000000001
sg6
F0.20000000000000001
sa(dp122
g3
F0
sg4
F0.59999999999999998
sg5
F0.20000000000000001
sg6
F0.40000000000000002
sa(dp123
g3
F0
sg4
F0.59999999999999998
sg5
F0.20000000000000001
sg6
F0.59999999999999998
sa(dp124
g3
F0
sg4
F0.59999999999999998
sg5
F0.20000000000000001
sg6
F0.80000000000000004
sa(dp125
g3
F0
sg4
F0.59999999999999998
sg5
F0.20000000000000001
sg6
F1
sa(dp126
g3
F0
sg4
F0.59999999999999998
sg5
F0.40000000000000002
sg6
F0
sa(dp127
g3
F0
sg4
F0.59999999999999998
sg5
F0.40000000000000002
sg6
F0.20000000000000001
sa(dp128
g3
F0
sg4
F0.59999999999999998
sg5
F0.40000000000000002
sg6
F0.40000000000000002
sa(dp129
g3
F0
sg4
F0.59999999999999998
sg5
F0.40000000000000002
sg6
F0.59999999999999998
sa(dp130
g3
F0
sg4
F0.59999999999999998
sg5
F0.40000000000000002
sg6
F0.80000000000000004
sa(dp131
g3
F0
sg4
F0.59999999999999998
sg5
F0.40000000000000002
sg6
F1
sa(dp132
g3
F0
sg4
F0.59999999999999998
sg5
F0.59999999999999998
sg6
F0
sa(dp133
g3
F0
sg4
F0.59999999999999998
sg5
F0.59999999999999998
sg6
F0.20000000000000001
sa(dp134
g3
F0
sg4
F0.59999999999999998
sg5
F0.59999999999999998
sg6
F0.40000000000000002
sa(dp135
g3
F0
sg4
F0.59999999999999998
sg5
F0.59999999999999998
sg6
F0.59999999999999998
sa(dp136
g3
F0
sg4
F0.59999999999999998
sg5
F0.59999999999999998
sg6
F0.80000000000000004
sa(dp137
g3
F0
sg4
F0.59999999999999998
sg5
F0.59999999999999998
sg6
F1
sa(dp138
g3
F0
sg4
F0.59999999999999998
sg5
F0.80000000000000004
sg6
F0
sa(dp139
g3
F0
sg4
F0.59999999999999998
sg5
F0.80000000000000004
sg6
F0.20000000000000001
sa(dp140
g3
F0
sg4
F0.59999999999999998
sg5
F0.80000000000000004
sg6
F0.40000000000000002
sa(dp141
g3
F0
sg4
F0.59999999999999998
sg5
F0.80000000000000004
sg6
F0.59999999999999998
sa(dp142
g3
F0
sg4
F0.59999999999999998
sg5
F0.80000000000000004
sg6
F0.80000000000000004
sa(dp143
g3
F0
sg4
F0.59999999999999998
sg5
F0.80000000000000004
sg6
F1
sa(dp144
g3
F0
sg4
F0.59999999999999998
sg5
F1
sg6
F0
sa(dp145
g3
F0
sg4
F0.59999999999999998
sg5
F1
sg6
F0.20000000000000001
sa(dp146
g3
F0
sg4
F0.59999999999999998
sg5
F1
sg6
F0.40000000000000002
sa(dp147
g3
F0
sg4
F0.59999999999999998
sg5
F1
sg6
F0.59999999999999998
sa(dp148
g3
F0
sg4
F0.59999999999999998
sg5
F1
sg6
F0.80000000000000004
sa(dp149
g3
F0
sg4
F0.59999999999999998
sg5
F1
sg6
F1
sa(dp150
g3
F0
sg4
F0.80000000000000004
sg5
F0
sg6
F0
sa(dp151
g3
F0
sg4
F0.80000000000000004
sg5
F0
sg6
F0.20000000000000001
sa(dp152
g3
F0
sg4
F0.80000000000000004
sg5
F0
sg6
F0.40000000000000002
sa(dp153
g3
F0
sg4
F0.80000000000000004
sg5
F0
sg6
F0.59999999999999998
sa(dp154
g3
F0
sg4
F0.80000000000000004
sg5
F0
sg6
F0.80000000000000004
sa(dp155
g3
F0
sg4
F0.80000000000000004
sg5
F0
sg6
F1
sa(dp156
g3
F0
sg4
F0.80000000000000004
sg5
F0.20000000000000001
sg6
F0
sa(dp157
g3
F0
sg4
F0.80000000000000004
sg5
F0.20000000000000001
sg6
F0.20000000000000001
sa(dp158
g3
F0
sg4
F0.80000000000000004
sg5
F0.20000000000000001
sg6
F0.40000000000000002
sa(dp159
g3
F0
sg4
F0.80000000000000004
sg5
F0.20000000000000001
sg6
F0.59999999999999998
sa(dp160
g3
F0
sg4
F0.80000000000000004
sg5
F0.20000000000000001
sg6
F0.80000000000000004
sa(dp161
g3
F0
sg4
F0.80000000000000004
sg5
F0.20000000000000001
sg6
F1
sa(dp162
g3
F0
sg4
F0.80000000000000004
sg5
F0.40000000000000002
sg6
F0
sa(dp163
g3
F0
sg4
F0.80000000000000004
sg5
F0.40000000000000002
sg6
F0.20000000000000001
sa(dp164
g3
F0
sg4
F0.80000000000000004
sg5
F0.40000000000000002
sg6
F0.40000000000000002
sa(dp165
g3
F0
sg4
F0.80000000000000004
sg5
F0.40000000000000002
sg6
F0.59999999999999998
sa(dp166
g3
F0
sg4
F0.80000000000000004
sg5
F0.40000000000000002
sg6
F0.80000000000000004
sa(dp167
g3
F0
sg4
F0.80000000000000004
sg5
F0.40000000000000002
sg6
F1
sa(dp168
g3
F0
sg4
F0.80000000000000004
sg5
F0.59999999999999998
sg6
F0
sa(dp169
g3
F0
sg4
F0.80000000000000004
sg5
F0.59999999999999998
sg6
F0.20000000000000001
sa(dp170
g3
F0
sg4
F0.80000000000000004
sg5
F0.59999999999999998
sg6
F0.40000000000000002
sa(dp171
g3
F0
sg4
F0.80000000000000004
sg5
F0.59999999999999998
sg6
F0.59999999999999998
sa(dp172
g3
F0
sg4
F0.80000000000000004
sg5
F0.59999999999999998
sg6
F0.80000000000000004
sa(dp173
g3
F0
sg4
F0.80000000000000004
sg5
F0.59999999999999998
sg6
F1
sa(dp174
g3
F0
sg4
F0.80000000000000004
sg5
F0.80000000000000004
sg6
F0
sa(dp175
g3
F0
sg4
F0.80000000000000004
sg5
F0.80000000000000004
sg6
F0.20000000000000001
sa(dp176
g3
F0
sg4
F0.80000000000000004
sg5
F0.80000000000000004
sg6
F0.40000000000000002
sa(dp177
g3
F0
sg4
F0.80000000000000004
sg5
F0.80000000000000004
sg6
F0.59999999999999998
sa(dp178
g3
F0
sg4
F0.80000000000000004
sg5
F0.80000000000000004
sg6
F0.80000000000000004
sa(dp179
g3
F0
sg4
F0.80000000000000004
sg5
F0.80000000000000004
sg6
F1
sa(dp180
g3
F0
sg4
F0.80000000000000004
sg5
F1
sg6
F0
sa(dp181
g3
F0
sg4
F0.80000000000000004
sg5
F1
sg6
F0.20000000000000001
sa(dp182
g3
F0
sg4
F0.80000000000000004
sg5
F1
sg6
F0.40000000000000002
sa(dp183
g3
F0
sg4
F0.80000000000000004
sg5
F1
sg6
F0.59999999999999998
sa(dp184
g3
F0
sg4
F0.80000000000000004
sg5
F1
sg6
F0.80000000000000004
sa(dp185
g3
F0
sg4
F0.80000000000000004
sg5
F1
sg6
F1
sa(dp186
g3
F0
sg4
F1
sg5
F0
sg6
F0
sa(dp187
g3
F0
sg4
F1
sg5
F0
sg6
F0.20000000000000001
sa(dp188
g3
F0
sg4
F1
sg5
F0
sg6
F0.40000000000000002
sa(dp189
g3
F0
sg4
F1
sg5
F0
sg6
F0.59999999999999998
sa(dp190
g3
F0
sg4
F1
sg5
F0
sg6
F0.80000000000000004
sa(dp191
g3
F0
sg4
F1
sg5
F0
sg6
F1
sa(dp192
g3
F0
sg4
F1
sg5
F0.20000000000000001
sg6
F0
sa(dp193
g3
F0
sg4
F1
sg5
F0.20000000000000001
sg6
F0.20000000000000001
sa(dp194
g3
F0
sg4
F1
sg5
F0.20000000000000001
sg6
F0.40000000000000002
sa(dp195
g3
F0
sg4
F1
sg5
F0.20000000000000001
sg6
F0.59999999999999998
sa(dp196
g3
F0
sg4
F1
sg5
F0.20000000000000001
sg6
F0.80000000000000004
sa(dp197
g3
F0
sg4
F1
sg5
F0.20000000000000001
sg6
F1
sa(dp198
g3
F0
sg4
F1
sg5
F0.40000000000000002
sg6
F0
sa(dp199
g3
F0
sg4
F1
sg5
F0.40000000000000002
sg6
F0.20000000000000001
sa(dp200
g3
F0
sg4
F1
sg5
F0.40000000000000002
sg6
F0.40000000000000002
sa(dp201
g3
F0
sg4
F1
sg5
F0.40000000000000002
sg6
F0.59999999999999998
sa(dp202
g3
F0
sg4
F1
sg5
F0.40000000000000002
sg6
F0.80000000000000004
sa(dp203
g3
F0
sg4
F1
sg5
F0.40000000000000002
sg6
F1
sa(dp204
g3
F0
sg4
F1
sg5
F0.59999999999999998
sg6
F0
sa(dp205
g3
F0
sg4
F1
sg5
F0.59999999999999998
sg6
F0.20000000000000001
sa(dp206
g3
F0
sg4
F1
sg5
F0.59999999999999998
sg6
F0.40000000000000002
sa(dp207
g3
F0
sg4
F1
sg5
F0.59999999999999998
sg6
F0.59999999999999998
sa(dp208
g3
F0
sg4
F1
sg5
F0.59999999999999998
sg6
F0.80000000000000004
sa(dp209
g3
F0
sg4
F1
sg5
F0.59999999999999998
sg6
F1
sa(dp210
g3
F0
sg4
F1
sg5
F0.80000000000000004
sg6
F0
sa(dp211
g3
F0
sg4
F1
sg5
F0.80000000000000004
sg6
F0.20000000000000001
sa(dp212
g3
F0
sg4
F1
sg5
F0.80000000000000004
sg6
F0.40000000000000002
sa(dp213
g3
F0
sg4
F1
sg5
F0.80000000000000004
sg6
F0.59999999999999998
sa(dp214
g3
F0
sg4
F1
sg5
F0.80000000000000004
sg6
F0.80000000000000004
sa(dp215
g3
F0
sg4
F1
sg5
F0.80000000000000004
sg6
F1
sa(dp216
g3
F0
sg4
F1
sg5
F1
sg6
F0
sa(dp217
g3
F0
sg4
F1
sg5
F1
sg6
F0.20000000000000001
sa(dp218
g3
F0
sg4
F1
sg5
F1
sg6
F0.40000000000000002
sa(dp219
g3
F0
sg4
F1
sg5
F1
sg6
F0.59999999999999998
sa(dp220
g3
F0
sg4
F1
sg5
F1
sg6
F0.80000000000000004
sa(dp221
g3
F0
sg4
F1
sg5
F1
sg6
F1
sa(dp222
g3
F0.20000000000000001
sg4
F0
sg5
F0
sg6
F0
sa(dp223
g3
F0.20000000000000001
sg4
F0
sg5
F0
sg6
F0.20000000000000001
sa(dp224
g3
F0.20000000000000001
sg4
F0
sg5
F0
sg6
F0.40000000000000002
sa(dp225
g3
F0.20000000000000001
sg4
F0
sg5
F0
sg6
F0.59999999999999998
sa(dp226
g3
F0.20000000000000001
sg4
F0
sg5
F0
sg6
F0.80000000000000004
sa(dp227
g3
F0.20000000000000001
sg4
F0
sg5
F0
sg6
F1
sa(dp228
g3
F0.20000000000000001
sg4
F0
sg5
F0.20000000000000001
sg6
F0
sa(dp229
g3
F0.20000000000000001
sg4
F0
sg5
F0.20000000000000001
sg6
F0.20000000000000001
sa(dp230
g3
F0.20000000000000001
sg4
F0
sg5
F0.20000000000000001
sg6
F0.40000000000000002
sa(dp231
g3
F0.20000000000000001
sg4
F0
sg5
F0.20000000000000001
sg6
F0.59999999999999998
sa(dp232
g3
F0.20000000000000001
sg4
F0
sg5
F0.20000000000000001
sg6
F0.80000000000000004
sa(dp233
g3
F0.20000000000000001
sg4
F0
sg5
F0.20000000000000001
sg6
F1
sa(dp234
g3
F0.20000000000000001
sg4
F0
sg5
F0.40000000000000002
sg6
F0
sa(dp235
g3
F0.20000000000000001
sg4
F0
sg5
F0.40000000000000002
sg6
F0.20000000000000001
sa(dp236
g3
F0.20000000000000001
sg4
F0
sg5
F0.40000000000000002
sg6
F0.40000000000000002
sa(dp237
g3
F0.20000000000000001
sg4
F0
sg5
F0.40000000000000002
sg6
F0.59999999999999998
sa(dp238
g3
F0.20000000000000001
sg4
F0
sg5
F0.40000000000000002
sg6
F0.80000000000000004
sa(dp239
g3
F0.20000000000000001
sg4
F0
sg5
F0.40000000000000002
sg6
F1
sa(dp240
g3
F0.20000000000000001
sg4
F0
sg5
F0.59999999999999998
sg6
F0
sa(dp241
g3
F0.20000000000000001
sg4
F0
sg5
F0.59999999999999998
sg6
F0.20000000000000001
sa(dp242
g3
F0.20000000000000001
sg4
F0
sg5
F0.59999999999999998
sg6
F0.40000000000000002
sa(dp243
g3
F0.20000000000000001
sg4
F0
sg5
F0.59999999999999998
sg6
F0.59999999999999998
sa(dp244
g3
F0.20000000000000001
sg4
F0
sg5
F0.59999999999999998
sg6
F0.80000000000000004
sa(dp245
g3
F0.20000000000000001
sg4
F0
sg5
F0.59999999999999998
sg6
F1
sa(dp246
g3
F0.20000000000000001
sg4
F0
sg5
F0.80000000000000004
sg6
F0
sa(dp247
g3
F0.20000000000000001
sg4
F0
sg5
F0.80000000000000004
sg6
F0.20000000000000001
sa(dp248
g3
F0.20000000000000001
sg4
F0
sg5
F0.80000000000000004
sg6
F0.40000000000000002
sa(dp249
g3
F0.20000000000000001
sg4
F0
sg5
F0.80000000000000004
sg6
F0.59999999999999998
sa(dp250
g3
F0.20000000000000001
sg4
F0
sg5
F0.80000000000000004
sg6
F0.80000000000000004
sa(dp251
g3
F0.20000000000000001
sg4
F0
sg5
F0.80000000000000004
sg6
F1
sa(dp252
g3
F0.20000000000000001
sg4
F0
sg5
F1
sg6
F0
sa(dp253
g3
F0.20000000000000001
sg4
F0
sg5
F1
sg6
F0.20000000000000001
sa(dp254
g3
F0.20000000000000001
sg4
F0
sg5
F1
sg6
F0.40000000000000002
sa(dp255
g3
F0.20000000000000001
sg4
F0
sg5
F1
sg6
F0.59999999999999998
sa(dp256
g3
F0.20000000000000001
sg4
F0
sg5
F1
sg6
F0.80000000000000004
sa(dp257
g3
F0.20000000000000001
sg4
F0
sg5
F1
sg6
F1
sa(dp258
g3
F0.20000000000000001
sg4
F0.20000000000000001
sg5
F0
sg6
F0
sa(dp259
g3
F0.20000000000000001
sg4
F0.20000000000000001
sg5
F0
sg6
F0.20000000000000001
sa(dp260
g3
F0.20000000000000001
sg4
F0.20000000000000001
sg5
F0
sg6
F0.40000000000000002
sa(dp261
g3
F0.20000000000000001
sg4
F0.20000000000000001
sg5
F0
sg6
F0.59999999999999998
sa(dp262
g3
F0.20000000000000001
sg4
F0.20000000000000001
sg5
F0
sg6
F0.80000000000000004
sa(dp263
g3
F0.20000000000000001
sg4
F0.20000000000000001
sg5
F0
sg6
F1
sa(dp264
g3
F0.20000000000000001
sg4
F0.20000000000000001
sg5
F0.20000000000000001
sg6
F0
sa(dp265
g3
F0.20000000000000001
sg4
F0.20000000000000001
sg5
F0.20000000000000001
sg6
F0.20000000000000001
sa(dp266
g3
F0.20000000000000001
sg4
F0.20000000000000001
sg5
F0.20000000000000001
sg6
F0.40000000000000002
sa(dp267
g3
F0.20000000000000001
sg4
F0.20000000000000001
sg5
F0.20000000000000001
sg6
F0.59999999999999998
sa(dp268
g3
F0.20000000000000001
sg4
F0.20000000000000001
sg5
F0.20000000000000001
sg6
F0.80000000000000004
sa(dp269
g3
F0.20000000000000001
sg4
F0.20000000000000001
sg5
F0.20000000000000001
sg6
F1
sa(dp270
g3
F0.20000000000000001
sg4
F0.20000000000000001
sg5
F0.40000000000000002
sg6
F0
sa(dp271
g3
F0.20000000000000001
sg4
F0.20000000000000001
sg5
F0.40000000000000002
sg6
F0.20000000000000001
sa(dp272
g3
F0.20000000000000001
sg4
F0.20000000000000001
sg5
F0.40000000000000002
sg6
F0.40000000000000002
sa(dp273
g3
F0.20000000000000001
sg4
F0.20000000000000001
sg5
F0.40000000000000002
sg6
F0.59999999999999998
sa(dp274
g3
F0.20000000000000001
sg4
F0.20000000000000001
sg5
F0.40000000000000002
sg6
F0.80000000000000004
sa(dp275
g3
F0.20000000000000001
sg4
F0.20000000000000001
sg5
F0.40000000000000002
sg6
F1
sa(dp276
g3
F0.20000000000000001
sg4
F0.20000000000000001
sg5
F0.59999999999999998
sg6
F0
sa(dp277
g3
F0.20000000000000001
sg4
F0.20000000000000001
sg5
F0.59999999999999998
sg6
F0.20000000000000001
sa(dp278
g3
F0.20000000000000001
sg4
F0.20000000000000001
sg5
F0.59999999999999998
sg6
F0.40000000000000002
sa(dp279
g3
F0.20000000000000001
sg4
F0.20000000000000001
sg5
F0.59999999999999998
sg6
F0.59999999999999998
sa(dp280
g3
F0.20000000000000001
sg4
F0.20000000000000001
sg5
F0.59999999999999998
sg6
F0.80000000000000004
sa(dp281
g3
F0.20000000000000001
sg4
F0.20000000000000001
sg5
F0.59999999999999998
sg6
F1
sa(dp282
g3
F0.20000000000000001
sg4
F0.20000000000000001
sg5
F0.80000000000000004
sg6
F0
sa(dp283
g3
F0.20000000000000001
sg4
F0.20000000000000001
sg5
F0.80000000000000004
sg6
F0.20000000000000001
sa(dp284
g3
F0.20000000000000001
sg4
F0.20000000000000001
sg5
F0.80000000000000004
sg6
F0.40000000000000002
sa(dp285
g3
F0.20000000000000001
sg4
F0.20000000000000001
sg5
F0.80000000000000004
sg6
F0.59999999999999998
sa(dp286
g3
F0.20000000000000001
sg4
F0.20000000000000001
sg5
F0.80000000000000004
sg6
F0.80000000000000004
sa(dp287
g3
F0.20000000000000001
sg4
F0.20000000000000001
sg5
F0.80000000000000004
sg6
F1
sa(dp288
g3
F0.20000000000000001
sg4
F0.20000000000000001
sg5
F1
sg6
F0
sa(dp289
g3
F0.20000000000000001
sg4
F0.20000000000000001
sg5
F1
sg6
F0.20000000000000001
sa(dp290
g3
F0.20000000000000001
sg4
F0.20000000000000001
sg5
F1
sg6
F0.40000000000000002
sa(dp291
g3
F0.20000000000000001
sg4
F0.20000000000000001
sg5
F1
sg6
F0.59999999999999998
sa(dp292
g3
F0.20000000000000001
sg4
F0.20000000000000001
sg5
F1
sg6
F0.80000000000000004
sa(dp293
g3
F0.20000000000000001
sg4
F0.20000000000000001
sg5
F1
sg6
F1
sa(dp294
g3
F0.20000000000000001
sg4
F0.40000000000000002
sg5
F0
sg6
F0
sa(dp295
g3
F0.20000000000000001
sg4
F0.40000000000000002
sg5
F0
sg6
F0.20000000000000001
sa(dp296
g3
F0.20000000000000001
sg4
F0.40000000000000002
sg5
F0
sg6
F0.40000000000000002
sa(dp297
g3
F0.20000000000000001
sg4
F0.40000000000000002
sg5
F0
sg6
F0.59999999999999998
sa(dp298
g3
F0.20000000000000001
sg4
F0.40000000000000002
sg5
F0
sg6
F0.80000000000000004
sa(dp299
g3
F0.20000000000000001
sg4
F0.40000000000000002
sg5
F0
sg6
F1
sa(dp300
g3
F0.20000000000000001
sg4
F0.40000000000000002
sg5
F0.20000000000000001
sg6
F0
sa(dp301
g3
F0.20000000000000001
sg4
F0.40000000000000002
sg5
F0.20000000000000001
sg6
F0.20000000000000001
sa(dp302
g3
F0.20000000000000001
sg4
F0.40000000000000002
sg5
F0.20000000000000001
sg6
F0.40000000000000002
sa(dp303
g3
F0.20000000000000001
sg4
F0.40000000000000002
sg5
F0.20000000000000001
sg6
F0.59999999999999998
sa(dp304
g3
F0.20000000000000001
sg4
F0.40000000000000002
sg5
F0.20000000000000001
sg6
F0.80000000000000004
sa(dp305
g3
F0.20000000000000001
sg4
F0.40000000000000002
sg5
F0.20000000000000001
sg6
F1
sa(dp306
g3
F0.20000000000000001
sg4
F0.40000000000000002
sg5
F0.40000000000000002
sg6
F0
sa(dp307
g3
F0.20000000000000001
sg4
F0.40000000000000002
sg5
F0.40000000000000002
sg6
F0.20000000000000001
sa(dp308
g3
F0.20000000000000001
sg4
F0.40000000000000002
sg5
F0.40000000000000002
sg6
F0.40000000000000002
sa(dp309
g3
F0.20000000000000001
sg4
F0.40000000000000002
sg5
F0.40000000000000002
sg6
F0.59999999999999998
sa(dp310
g3
F0.20000000000000001
sg4
F0.40000000000000002
sg5
F0.40000000000000002
sg6
F0.80000000000000004
sa(dp311
g3
F0.20000000000000001
sg4
F0.40000000000000002
sg5
F0.40000000000000002
sg6
F1
sa(dp312
g3
F0.20000000000000001
sg4
F0.40000000000000002
sg5
F0.59999999999999998
sg6
F0
sa(dp313
g3
F0.20000000000000001
sg4
F0.40000000000000002
sg5
F0.59999999999999998
sg6
F0.20000000000000001
sa(dp314
g3
F0.20000000000000001
sg4
F0.40000000000000002
sg5
F0.59999999999999998
sg6
F0.40000000000000002
sa(dp315
g3
F0.20000000000000001
sg4
F0.40000000000000002
sg5
F0.59999999999999998
sg6
F0.59999999999999998
sa(dp316
g3
F0.20000000000000001
sg4
F0.40000000000000002
sg5
F0.59999999999999998
sg6
F0.80000000000000004
sa(dp317
g3
F0.20000000000000001
sg4
F0.40000000000000002
sg5
F0.59999999999999998
sg6
F1
sa(dp318
g3
F0.20000000000000001
sg4
F0.40000000000000002
sg5
F0.80000000000000004
sg6
F0
sa(dp319
g3
F0.20000000000000001
sg4
F0.40000000000000002
sg5
F0.80000000000000004
sg6
F0.20000000000000001
sa(dp320
g3
F0.20000000000000001
sg4
F0.40000000000000002
sg5
F0.80000000000000004
sg6
F0.40000000000000002
sa(dp321
g3
F0.20000000000000001
sg4
F0.40000000000000002
sg5
F0.80000000000000004
sg6
F0.59999999999999998
sa(dp322
g3
F0.20000000000000001
sg4
F0.40000000000000002
sg5
F0.80000000000000004
sg6
F0.80000000000000004
sa(dp323
g3
F0.20000000000000001
sg4
F0.40000000000000002
sg5
F0.80000000000000004
sg6
F1
sa(dp324
g3
F0.20000000000000001
sg4
F0.40000000000000002
sg5
F1
sg6
F0
sa(dp325
g3
F0.20000000000000001
sg4
F0.40000000000000002
sg5
F1
sg6
F0.20000000000000001
sa(dp326
g3
F0.20000000000000001
sg4
F0.40000000000000002
sg5
F1
sg6
F0.40000000000000002
sa(dp327
g3
F0.20000000000000001
sg4
F0.40000000000000002
sg5
F1
sg6
F0.59999999999999998
sa(dp328
g3
F0.20000000000000001
sg4
F0.40000000000000002
sg5
F1
sg6
F0.80000000000000004
sa(dp329
g3
F0.20000000000000001
sg4
F0.40000000000000002
sg5
F1
sg6
F1
sa(dp330
g3
F0.20000000000000001
sg4
F0.59999999999999998
sg5
F0
sg6
F0
sa(dp331
g3
F0.20000000000000001
sg4
F0.59999999999999998
sg5
F0
sg6
F0.20000000000000001
sa(dp332
g3
F0.20000000000000001
sg4
F0.59999999999999998
sg5
F0
sg6
F0.40000000000000002
sa(dp333
g3
F0.20000000000000001
sg4
F0.59999999999999998
sg5
F0
sg6
F0.59999999999999998
sa(dp334
g3
F0.20000000000000001
sg4
F0.59999999999999998
sg5
F0
sg6
F0.80000000000000004
sa(dp335
g3
F0.20000000000000001
sg4
F0.59999999999999998
sg5
F0
sg6
F1
sa(dp336
g3
F0.20000000000000001
sg4
F0.59999999999999998
sg5
F0.20000000000000001
sg6
F0
sa(dp337
g3
F0.20000000000000001
sg4
F0.59999999999999998
sg5
F0.20000000000000001
sg6
F0.20000000000000001
sa(dp338
g3
F0.20000000000000001
sg4
F0.59999999999999998
sg5
F0.20000000000000001
sg6
F0.40000000000000002
sa(dp339
g3
F0.20000000000000001
sg4
F0.59999999999999998
sg5
F0.20000000000000001
sg6
F0.59999999999999998
sa(dp340
g3
F0.20000000000000001
sg4
F0.59999999999999998
sg5
F0.20000000000000001
sg6
F0.80000000000000004
sa(dp341
g3
F0.20000000000000001
sg4
F0.59999999999999998
sg5
F0.20000000000000001
sg6
F1
sa(dp342
g3
F0.20000000000000001
sg4
F0.59999999999999998
sg5
F0.40000000000000002
sg6
F0
sa(dp343
g3
F0.20000000000000001
sg4
F0.59999999999999998
sg5
F0.40000000000000002
sg6
F0.20000000000000001
sa(dp344
g3
F0.20000000000000001
sg4
F0.59999999999999998
sg5
F0.40000000000000002
sg6
F0.40000000000000002
sa(dp345
g3
F0.20000000000000001
sg4
F0.59999999999999998
sg5
F0.40000000000000002
sg6
F0.59999999999999998
sa(dp346
g3
F0.20000000000000001
sg4
F0.59999999999999998
sg5
F0.40000000000000002
sg6
F0.80000000000000004
sa(dp347
g3
F0.20000000000000001
sg4
F0.59999999999999998
sg5
F0.40000000000000002
sg6
F1
sa(dp348
g3
F0.20000000000000001
sg4
F0.59999999999999998
sg5
F0.59999999999999998
sg6
F0
sa(dp349
g3
F0.20000000000000001
sg4
F0.59999999999999998
sg5
F0.59999999999999998
sg6
F0.20000000000000001
sa(dp350
g3
F0.20000000000000001
sg4
F0.59999999999999998
sg5
F0.59999999999999998
sg6
F0.40000000000000002
sa(dp351
g3
F0.20000000000000001
sg4
F0.59999999999999998
sg5
F0.59999999999999998
sg6
F0.59999999999999998
sa(dp352
g3
F0.20000000000000001
sg4
F0.59999999999999998
sg5
F0.59999999999999998
sg6
F0.80000000000000004
sa(dp353
g3
F0.20000000000000001
sg4
F0.59999999999999998
sg5
F0.59999999999999998
sg6
F1
sa(dp354
g3
F0.20000000000000001
sg4
F0.59999999999999998
sg5
F0.80000000000000004
sg6
F0
sa(dp355
g3
F0.20000000000000001
sg4
F0.59999999999999998
sg5
F0.80000000000000004
sg6
F0.20000000000000001
sa(dp356
g3
F0.20000000000000001
sg4
F0.59999999999999998
sg5
F0.80000000000000004
sg6
F0.40000000000000002
sa(dp357
g3
F0.20000000000000001
sg4
F0.59999999999999998
sg5
F0.80000000000000004
sg6
F0.59999999999999998
sa(dp358
g3
F0.20000000000000001
sg4
F0.59999999999999998
sg5
F0.80000000000000004
sg6
F0.80000000000000004
sa(dp359
g3
F0.20000000000000001
sg4
F0.59999999999999998
sg5
F0.80000000000000004
sg6
F1
sa(dp360
g3
F0.20000000000000001
sg4
F0.59999999999999998
sg5
F1
sg6
F0
sa(dp361
g3
F0.20000000000000001
sg4
F0.59999999999999998
sg5
F1
sg6
F0.20000000000000001
sa(dp362
g3
F0.20000000000000001
sg4
F0.59999999999999998
sg5
F1
sg6
F0.40000000000000002
sa(dp363
g3
F0.20000000000000001
sg4
F0.59999999999999998
sg5
F1
sg6
F0.59999999999999998
sa(dp364
g3
F0.20000000000000001
sg4
F0.59999999999999998
sg5
F1
sg6
F0.80000000000000004
sa(dp365
g3
F0.20000000000000001
sg4
F0.59999999999999998
sg5
F1
sg6
F1
sa(dp366
g3
F0.20000000000000001
sg4
F0.80000000000000004
sg5
F0
sg6
F0
sa(dp367
g3
F0.20000000000000001
sg4
F0.80000000000000004
sg5
F0
sg6
F0.20000000000000001
sa(dp368
g3
F0.20000000000000001
sg4
F0.80000000000000004
sg5
F0
sg6
F0.40000000000000002
sa(dp369
g3
F0.20000000000000001
sg4
F0.80000000000000004
sg5
F0
sg6
F0.59999999999999998
sa(dp370
g3
F0.20000000000000001
sg4
F0.80000000000000004
sg5
F0
sg6
F0.80000000000000004
sa(dp371
g3
F0.20000000000000001
sg4
F0.80000000000000004
sg5
F0
sg6
F1
sa(dp372
g3
F0.20000000000000001
sg4
F0.80000000000000004
sg5
F0.20000000000000001
sg6
F0
sa(dp373
g3
F0.20000000000000001
sg4
F0.80000000000000004
sg5
F0.20000000000000001
sg6
F0.20000000000000001
sa(dp374
g3
F0.20000000000000001
sg4
F0.80000000000000004
sg5
F0.20000000000000001
sg6
F0.40000000000000002
sa(dp375
g3
F0.20000000000000001
sg4
F0.80000000000000004
sg5
F0.20000000000000001
sg6
F0.59999999999999998
sa(dp376
g3
F0.20000000000000001
sg4
F0.80000000000000004
sg5
F0.20000000000000001
sg6
F0.80000000000000004
sa(dp377
g3
F0.20000000000000001
sg4
F0.80000000000000004
sg5
F0.20000000000000001
sg6
F1
sa(dp378
g3
F0.20000000000000001
sg4
F0.80000000000000004
sg5
F0.40000000000000002
sg6
F0
sa(dp379
g3
F0.20000000000000001
sg4
F0.80000000000000004
sg5
F0.40000000000000002
sg6
F0.20000000000000001
sa(dp380
g3
F0.20000000000000001
sg4
F0.80000000000000004
sg5
F0.40000000000000002
sg6
F0.40000000000000002
sa(dp381
g3
F0.20000000000000001
sg4
F0.80000000000000004
sg5
F0.40000000000000002
sg6
F0.59999999999999998
sa(dp382
g3
F0.20000000000000001
sg4
F0.80000000000000004
sg5
F0.40000000000000002
sg6
F0.80000000000000004
sa(dp383
g3
F0.20000000000000001
sg4
F0.80000000000000004
sg5
F0.40000000000000002
sg6
F1
sa(dp384
g3
F0.20000000000000001
sg4
F0.80000000000000004
sg5
F0.59999999999999998
sg6
F0
sa(dp385
g3
F0.20000000000000001
sg4
F0.80000000000000004
sg5
F0.59999999999999998
sg6
F0.20000000000000001
sa(dp386
g3
F0.20000000000000001
sg4
F0.80000000000000004
sg5
F0.59999999999999998
sg6
F0.40000000000000002
sa(dp387
g3
F0.20000000000000001
sg4
F0.80000000000000004
sg5
F0.59999999999999998
sg6
F0.59999999999999998
sa(dp388
g3
F0.20000000000000001
sg4
F0.80000000000000004
sg5
F0.59999999999999998
sg6
F0.80000000000000004
sa(dp389
g3
F0.20000000000000001
sg4
F0.80000000000000004
sg5
F0.59999999999999998
sg6
F1
sa(dp390
g3
F0.20000000000000001
sg4
F0.80000000000000004
sg5
F0.80000000000000004
sg6
F0
sa(dp391
g3
F0.20000000000000001
sg4
F0.80000000000000004
sg5
F0.80000000000000004
sg6
F0.20000000000000001
sa(dp392
g3
F0.20000000000000001
sg4
F0.80000000000000004
sg5
F0.80000000000000004
sg6
F0.40000000000000002
sa(dp393
g3
F0.20000000000000001
sg4
F0.80000000000000004
sg5
F0.80000000000000004
sg6
F0.59999999999999998
sa(dp394
g3
F0.20000000000000001
sg4
F0.80000000000000004
sg5
F0.80000000000000004
sg6
F0.80000000000000004
sa(dp395
g3
F0.20000000000000001
sg4
F0.80000000000000004
sg5
F0.80000000000000004
sg6
F1
sa(dp396
g3
F0.20000000000000001
sg4
F0.80000000000000004
sg5
F1
sg6
F0
sa(dp397
g3
F0.20000000000000001
sg4
F0.80000000000000004
sg5
F1
sg6
F0.20000000000000001
sa(dp398
g3
F0.20000000000000001
sg4
F0.80000000000000004
sg5
F1
sg6
F0.40000000000000002
sa(dp399
g3
F0.20000000000000001
sg4
F0.80000000000000004
sg5
F1
sg6
F0.59999999999999998
sa(dp400
g3
F0.20000000000000001
sg4
F0.80000000000000004
sg5
F1
sg6
F0.80000000000000004
sa(dp401
g3
F0.20000000000000001
sg4
F0.80000000000000004
sg5
F1
sg6
F1
sa(dp402
g3
F0.20000000000000001
sg4
F1
sg5
F0
sg6
F0
sa(dp403
g3
F0.20000000000000001
sg4
F1
sg5
F0
sg6
F0.20000000000000001
sa(dp404
g3
F0.20000000000000001
sg4
F1
sg5
F0
sg6
F0.40000000000000002
sa(dp405
g3
F0.20000000000000001
sg4
F1
sg5
F0
sg6
F0.59999999999999998
sa(dp406
g3
F0.20000000000000001
sg4
F1
sg5
F0
sg6
F0.80000000000000004
sa(dp407
g3
F0.20000000000000001
sg4
F1
sg5
F0
sg6
F1
sa(dp408
g3
F0.20000000000000001
sg4
F1
sg5
F0.20000000000000001
sg6
F0
sa(dp409
g3
F0.20000000000000001
sg4
F1
sg5
F0.20000000000000001
sg6
F0.20000000000000001
sa(dp410
g3
F0.20000000000000001
sg4
F1
sg5
F0.20000000000000001
sg6
F0.40000000000000002
sa(dp411
g3
F0.20000000000000001
sg4
F1
sg5
F0.20000000000000001
sg6
F0.59999999999999998
sa(dp412
g3
F0.20000000000000001
sg4
F1
sg5
F0.20000000000000001
sg6
F0.80000000000000004
sa(dp413
g3
F0.20000000000000001
sg4
F1
sg5
F0.20000000000000001
sg6
F1
sa(dp414
g3
F0.20000000000000001
sg4
F1
sg5
F0.40000000000000002
sg6
F0
sa(dp415
g3
F0.20000000000000001
sg4
F1
sg5
F0.40000000000000002
sg6
F0.20000000000000001
sa(dp416
g3
F0.20000000000000001
sg4
F1
sg5
F0.40000000000000002
sg6
F0.40000000000000002
sa(dp417
g3
F0.20000000000000001
sg4
F1
sg5
F0.40000000000000002
sg6
F0.59999999999999998
sa(dp418
g3
F0.20000000000000001
sg4
F1
sg5
F0.40000000000000002
sg6
F0.80000000000000004
sa(dp419
g3
F0.20000000000000001
sg4
F1
sg5
F0.40000000000000002
sg6
F1
sa(dp420
g3
F0.20000000000000001
sg4
F1
sg5
F0.59999999999999998
sg6
F0
sa(dp421
g3
F0.20000000000000001
sg4
F1
sg5
F0.59999999999999998
sg6
F0.20000000000000001
sa(dp422
g3
F0.20000000000000001
sg4
F1
sg5
F0.59999999999999998
sg6
F0.40000000000000002
sa(dp423
g3
F0.20000000000000001
sg4
F1
sg5
F0.59999999999999998
sg6
F0.59999999999999998
sa(dp424
g3
F0.20000000000000001
sg4
F1
sg5
F0.59999999999999998
sg6
F0.80000000000000004
sa(dp425
g3
F0.20000000000000001
sg4
F1
sg5
F0.59999999999999998
sg6
F1
sa(dp426
g3
F0.20000000000000001
sg4
F1
sg5
F0.80000000000000004
sg6
F0
sa(dp427
g3
F0.20000000000000001
sg4
F1
sg5
F0.80000000000000004
sg6
F0.20000000000000001
sa(dp428
g3
F0.20000000000000001
sg4
F1
sg5
F0.80000000000000004
sg6
F0.40000000000000002
sa(dp429
g3
F0.20000000000000001
sg4
F1
sg5
F0.80000000000000004
sg6
F0.59999999999999998
sa(dp430
g3
F0.20000000000000001
sg4
F1
sg5
F0.80000000000000004
sg6
F0.80000000000000004
sa(dp431
g3
F0.20000000000000001
sg4
F1
sg5
F0.80000000000000004
sg6
F1
sa(dp432
g3
F0.20000000000000001
sg4
F1
sg5
F1
sg6
F0
sa(dp433
g3
F0.20000000000000001
sg4
F1
sg5
F1
sg6
F0.20000000000000001
sa(dp434
g3
F0.20000000000000001
sg4
F1
sg5
F1
sg6
F0.40000000000000002
sa(dp435
g3
F0.20000000000000001
sg4
F1
sg5
F1
sg6
F0.59999999999999998
sa(dp436
g3
F0.20000000000000001
sg4
F1
sg5
F1
sg6
F0.80000000000000004
sa(dp437
g3
F0.20000000000000001
sg4
F1
sg5
F1
sg6
F1
sa(dp438
g3
F0.40000000000000002
sg4
F0
sg5
F0
sg6
F0
sa(dp439
g3
F0.40000000000000002
sg4
F0
sg5
F0
sg6
F0.20000000000000001
sa(dp440
g3
F0.40000000000000002
sg4
F0
sg5
F0
sg6
F0.40000000000000002
sa(dp441
g3
F0.40000000000000002
sg4
F0
sg5
F0
sg6
F0.59999999999999998
sa(dp442
g3
F0.40000000000000002
sg4
F0
sg5
F0
sg6
F0.80000000000000004
sa(dp443
g3
F0.40000000000000002
sg4
F0
sg5
F0
sg6
F1
sa(dp444
g3
F0.40000000000000002
sg4
F0
sg5
F0.20000000000000001
sg6
F0
sa(dp445
g3
F0.40000000000000002
sg4
F0
sg5
F0.20000000000000001
sg6
F0.20000000000000001
sa(dp446
g3
F0.40000000000000002
sg4
F0
sg5
F0.20000000000000001
sg6
F0.40000000000000002
sa(dp447
g3
F0.40000000000000002
sg4
F0
sg5
F0.20000000000000001
sg6
F0.59999999999999998
sa(dp448
g3
F0.40000000000000002
sg4
F0
sg5
F0.20000000000000001
sg6
F0.80000000000000004
sa(dp449
g3
F0.40000000000000002
sg4
F0
sg5
F0.20000000000000001
sg6
F1
sa(dp450
g3
F0.40000000000000002
sg4
F0
sg5
F0.40000000000000002
sg6
F0
sa(dp451
g3
F0.40000000000000002
sg4
F0
sg5
F0.40000000000000002
sg6
F0.20000000000000001
sa(dp452
g3
F0.40000000000000002
sg4
F0
sg5
F0.40000000000000002
sg6
F0.40000000000000002
sa(dp453
g3
F0.40000000000000002
sg4
F0
sg5
F0.40000000000000002
sg6
F0.59999999999999998
sa(dp454
g3
F0.40000000000000002
sg4
F0
sg5
F0.40000000000000002
sg6
F0.80000000000000004
sa(dp455
g3
F0.40000000000000002
sg4
F0
sg5
F0.40000000000000002
sg6
F1
sa(dp456
g3
F0.40000000000000002
sg4
F0
sg5
F0.59999999999999998
sg6
F0
sa(dp457
g3
F0.40000000000000002
sg4
F0
sg5
F0.59999999999999998
sg6
F0.20000000000000001
sa(dp458
g3
F0.40000000000000002
sg4
F0
sg5
F0.59999999999999998
sg6
F0.40000000000000002
sa(dp459
g3
F0.40000000000000002
sg4
F0
sg5
F0.59999999999999998
sg6
F0.59999999999999998
sa(dp460
g3
F0.40000000000000002
sg4
F0
sg5
F0.59999999999999998
sg6
F0.80000000000000004
sa(dp461
g3
F0.40000000000000002
sg4
F0
sg5
F0.59999999999999998
sg6
F1
sa(dp462
g3
F0.40000000000000002
sg4
F0
sg5
F0.80000000000000004
sg6
F0
sa(dp463
g3
F0.40000000000000002
sg4
F0
sg5
F0.80000000000000004
sg6
F0.20000000000000001
sa(dp464
g3
F0.40000000000000002
sg4
F0
sg5
F0.80000000000000004
sg6
F0.40000000000000002
sa(dp465
g3
F0.40000000000000002
sg4
F0
sg5
F0.80000000000000004
sg6
F0.59999999999999998
sa(dp466
g3
F0.40000000000000002
sg4
F0
sg5
F0.80000000000000004
sg6
F0.80000000000000004
sa(dp467
g3
F0.40000000000000002
sg4
F0
sg5
F0.80000000000000004
sg6
F1
sa(dp468
g3
F0.40000000000000002
sg4
F0
sg5
F1
sg6
F0
sa(dp469
g3
F0.40000000000000002
sg4
F0
sg5
F1
sg6
F0.20000000000000001
sa(dp470
g3
F0.40000000000000002
sg4
F0
sg5
F1
sg6
F0.40000000000000002
sa(dp471
g3
F0.40000000000000002
sg4
F0
sg5
F1
sg6
F0.59999999999999998
sa(dp472
g3
F0.40000000000000002
sg4
F0
sg5
F1
sg6
F0.80000000000000004
sa(dp473
g3
F0.40000000000000002
sg4
F0
sg5
F1
sg6
F1
sa(dp474
g3
F0.40000000000000002
sg4
F0.20000000000000001
sg5
F0
sg6
F0
sa(dp475
g3
F0.40000000000000002
sg4
F0.20000000000000001
sg5
F0
sg6
F0.20000000000000001
sa(dp476
g3
F0.40000000000000002
sg4
F0.20000000000000001
sg5
F0
sg6
F0.40000000000000002
sa(dp477
g3
F0.40000000000000002
sg4
F0.20000000000000001
sg5
F0
sg6
F0.59999999999999998
sa(dp478
g3
F0.40000000000000002
sg4
F0.20000000000000001
sg5
F0
sg6
F0.80000000000000004
sa(dp479
g3
F0.40000000000000002
sg4
F0.20000000000000001
sg5
F0
sg6
F1
sa(dp480
g3
F0.40000000000000002
sg4
F0.20000000000000001
sg5
F0.20000000000000001
sg6
F0
sa(dp481
g3
F0.40000000000000002
sg4
F0.20000000000000001
sg5
F0.20000000000000001
sg6
F0.20000000000000001
sa(dp482
g3
F0.40000000000000002
sg4
F0.20000000000000001
sg5
F0.20000000000000001
sg6
F0.40000000000000002
sa(dp483
g3
F0.40000000000000002
sg4
F0.20000000000000001
sg5
F0.20000000000000001
sg6
F0.59999999999999998
sa(dp484
g3
F0.40000000000000002
sg4
F0.20000000000000001
sg5
F0.20000000000000001
sg6
F0.80000000000000004
sa(dp485
g3
F0.40000000000000002
sg4
F0.20000000000000001
sg5
F0.20000000000000001
sg6
F1
sa(dp486
g3
F0.40000000000000002
sg4
F0.20000000000000001
sg5
F0.40000000000000002
sg6
F0
sa(dp487
g3
F0.40000000000000002
sg4
F0.20000000000000001
sg5
F0.40000000000000002
sg6
F0.20000000000000001
sa(dp488
g3
F0.40000000000000002
sg4
F0.20000000000000001
sg5
F0.40000000000000002
sg6
F0.40000000000000002
sa(dp489
g3
F0.40000000000000002
sg4
F0.20000000000000001
sg5
F0.40000000000000002
sg6
F0.59999999999999998
sa(dp490
g3
F0.40000000000000002
sg4
F0.20000000000000001
sg5
F0.40000000000000002
sg6
F0.80000000000000004
sa(dp491
g3
F0.40000000000000002
sg4
F0.20000000000000001
sg5
F0.40000000000000002
sg6
F1
sa(dp492
g3
F0.40000000000000002
sg4
F0.20000000000000001
sg5
F0.59999999999999998
sg6
F0
sa(dp493
g3
F0.40000000000000002
sg4
F0.20000000000000001
sg5
F0.59999999999999998
sg6
F0.20000000000000001
sa(dp494
g3
F0.40000000000000002
sg4
F0.20000000000000001
sg5
F0.59999999999999998
sg6
F0.40000000000000002
sa(dp495
g3
F0.40000000000000002
sg4
F0.20000000000000001
sg5
F0.59999999999999998
sg6
F0.59999999999999998
sa(dp496
g3
F0.40000000000000002
sg4
F0.20000000000000001
sg5
F0.59999999999999998
sg6
F0.80000000000000004
sa(dp497
g3
F0.40000000000000002
sg4
F0.20000000000000001
sg5
F0.59999999999999998
sg6
F1
sa(dp498
g3
F0.40000000000000002
sg4
F0.20000000000000001
sg5
F0.80000000000000004
sg6
F0
sa(dp499
g3
F0.40000000000000002
sg4
F0.20000000000000001
sg5
F0.80000000000000004
sg6
F0.20000000000000001
sa(dp500
g3
F0.40000000000000002
sg4
F0.20000000000000001
sg5
F0.80000000000000004
sg6
F0.40000000000000002
sa(dp501
g3
F0.40000000000000002
sg4
F0.20000000000000001
sg5
F0.80000000000000004
sg6
F0.59999999999999998
sa(dp502
g3
F0.40000000000000002
sg4
F0.20000000000000001
sg5
F0.80000000000000004
sg6
F0.80000000000000004
sa(dp503
g3
F0.40000000000000002
sg4
F0.20000000000000001
sg5
F0.80000000000000004
sg6
F1
sa(dp504
g3
F0.40000000000000002
sg4
F0.20000000000000001
sg5
F1
sg6
F0
sa(dp505
g3
F0.40000000000000002
sg4
F0.20000000000000001
sg5
F1
sg6
F0.20000000000000001
sa(dp506
g3
F0.40000000000000002
sg4
F0.20000000000000001
sg5
F1
sg6
F0.40000000000000002
sa(dp507
g3
F0.40000000000000002
sg4
F0.20000000000000001
sg5
F1
sg6
F0.59999999999999998
sa(dp508
g3
F0.40000000000000002
sg4
F0.20000000000000001
sg5
F1
sg6
F0.80000000000000004
sa(dp509
g3
F0.40000000000000002
sg4
F0.20000000000000001
sg5
F1
sg6
F1
sa(dp510
g3
F0.40000000000000002
sg4
F0.40000000000000002
sg5
F0
sg6
F0
sa(dp511
g3
F0.40000000000000002
sg4
F0.40000000000000002
sg5
F0
sg6
F0.20000000000000001
sa(dp512
g3
F0.40000000000000002
sg4
F0.40000000000000002
sg5
F0
sg6
F0.40000000000000002
sa(dp513
g3
F0.40000000000000002
sg4
F0.40000000000000002
sg5
F0
sg6
F0.59999999999999998
sa(dp514
g3
F0.40000000000000002
sg4
F0.40000000000000002
sg5
F0
sg6
F0.80000000000000004
sa(dp515
g3
F0.40000000000000002
sg4
F0.40000000000000002
sg5
F0
sg6
F1
sa(dp516
g3
F0.40000000000000002
sg4
F0.40000000000000002
sg5
F0.20000000000000001
sg6
F0
sa(dp517
g3
F0.40000000000000002
sg4
F0.40000000000000002
sg5
F0.20000000000000001
sg6
F0.20000000000000001
sa(dp518
g3
F0.40000000000000002
sg4
F0.40000000000000002
sg5
F0.20000000000000001
sg6
F0.40000000000000002
sa(dp519
g3
F0.40000000000000002
sg4
F0.40000000000000002
sg5
F0.20000000000000001
sg6
F0.59999999999999998
sa(dp520
g3
F0.40000000000000002
sg4
F0.40000000000000002
sg5
F0.20000000000000001
sg6
F0.80000000000000004
sa(dp521
g3
F0.40000000000000002
sg4
F0.40000000000000002
sg5
F0.20000000000000001
sg6
F1
sa(dp522
g3
F0.40000000000000002
sg4
F0.40000000000000002
sg5
F0.40000000000000002
sg6
F0
sa(dp523
g3
F0.40000000000000002
sg4
F0.40000000000000002
sg5
F0.40000000000000002
sg6
F0.20000000000000001
sa(dp524
g3
F0.40000000000000002
sg4
F0.40000000000000002
sg5
F0.40000000000000002
sg6
F0.40000000000000002
sa(dp525
g3
F0.40000000000000002
sg4
F0.40000000000000002
sg5
F0.40000000000000002
sg6
F0.59999999999999998
sa(dp526
g3
F0.40000000000000002
sg4
F0.40000000000000002
sg5
F0.40000000000000002
sg6
F0.80000000000000004
sa(dp527
g3
F0.40000000000000002
sg4
F0.40000000000000002
sg5
F0.40000000000000002
sg6
F1
sa(dp528
g3
F0.40000000000000002
sg4
F0.40000000000000002
sg5
F0.59999999999999998
sg6
F0
sa(dp529
g3
F0.40000000000000002
sg4
F0.40000000000000002
sg5
F0.59999999999999998
sg6
F0.20000000000000001
sa(dp530
g3
F0.40000000000000002
sg4
F0.40000000000000002
sg5
F0.59999999999999998
sg6
F0.40000000000000002
sa(dp531
g3
F0.40000000000000002
sg4
F0.40000000000000002
sg5
F0.59999999999999998
sg6
F0.59999999999999998
sa(dp532
g3
F0.40000000000000002
sg4
F0.40000000000000002
sg5
F0.59999999999999998
sg6
F0.80000000000000004
sa(dp533
g3
F0.40000000000000002
sg4
F0.40000000000000002
sg5
F0.59999999999999998
sg6
F1
sa(dp534
g3
F0.40000000000000002
sg4
F0.40000000000000002
sg5
F0.80000000000000004
sg6
F0
sa(dp535
g3
F0.40000000000000002
sg4
F0.40000000000000002
sg5
F0.80000000000000004
sg6
F0.20000000000000001
sa(dp536
g3
F0.40000000000000002
sg4
F0.40000000000000002
sg5
F0.80000000000000004
sg6
F0.40000000000000002
sa(dp537
g3
F0.40000000000000002
sg4
F0.40000000000000002
sg5
F0.80000000000000004
sg6
F0.59999999999999998
sa(dp538
g3
F0.40000000000000002
sg4
F0.40000000000000002
sg5
F0.80000000000000004
sg6
F0.80000000000000004
sa(dp539
g3
F0.40000000000000002
sg4
F0.40000000000000002
sg5
F0.80000000000000004
sg6
F1
sa(dp540
g3
F0.40000000000000002
sg4
F0.40000000000000002
sg5
F1
sg6
F0
sa(dp541
g3
F0.40000000000000002
sg4
F0.40000000000000002
sg5
F1
sg6
F0.20000000000000001
sa(dp542
g3
F0.40000000000000002
sg4
F0.40000000000000002
sg5
F1
sg6
F0.40000000000000002
sa(dp543
g3
F0.40000000000000002
sg4
F0.40000000000000002
sg5
F1
sg6
F0.59999999999999998
sa(dp544
g3
F0.40000000000000002
sg4
F0.40000000000000002
sg5
F1
sg6
F0.80000000000000004
sa(dp545
g3
F0.40000000000000002
sg4
F0.40000000000000002
sg5
F1
sg6
F1
sa(dp546
g3
F0.40000000000000002
sg4
F0.59999999999999998
sg5
F0
sg6
F0
sa(dp547
g3
F0.40000000000000002
sg4
F0.59999999999999998
sg5
F0
sg6
F0.20000000000000001
sa(dp548
g3
F0.40000000000000002
sg4
F0.59999999999999998
sg5
F0
sg6
F0.40000000000000002
sa(dp549
g3
F0.40000000000000002
sg4
F0.59999999999999998
sg5
F0
sg6
F0.59999999999999998
sa(dp550
g3
F0.40000000000000002
sg4
F0.59999999999999998
sg5
F0
sg6
F0.80000000000000004
sa(dp551
g3
F0.40000000000000002
sg4
F0.59999999999999998
sg5
F0
sg6
F1
sa(dp552
g3
F0.40000000000000002
sg4
F0.59999999999999998
sg5
F0.20000000000000001
sg6
F0
sa(dp553
g3
F0.40000000000000002
sg4
F0.59999999999999998
sg5
F0.20000000000000001
sg6
F0.20000000000000001
sa(dp554
g3
F0.40000000000000002
sg4
F0.59999999999999998
sg5
F0.20000000000000001
sg6
F0.40000000000000002
sa(dp555
g3
F0.40000000000000002
sg4
F0.59999999999999998
sg5
F0.20000000000000001
sg6
F0.59999999999999998
sa(dp556
g3
F0.40000000000000002
sg4
F0.59999999999999998
sg5
F0.20000000000000001
sg6
F0.80000000000000004
sa(dp557
g3
F0.40000000000000002
sg4
F0.59999999999999998
sg5
F0.20000000000000001
sg6
F1
sa(dp558
g3
F0.40000000000000002
sg4
F0.59999999999999998
sg5
F0.40000000000000002
sg6
F0
sa(dp559
g3
F0.40000000000000002
sg4
F0.59999999999999998
sg5
F0.40000000000000002
sg6
F0.20000000000000001
sa(dp560
g3
F0.40000000000000002
sg4
F0.59999999999999998
sg5
F0.40000000000000002
sg6
F0.40000000000000002
sa(dp561
g3
F0.40000000000000002
sg4
F0.59999999999999998
sg5
F0.40000000000000002
sg6
F0.59999999999999998
sa(dp562
g3
F0.40000000000000002
sg4
F0.59999999999999998
sg5
F0.40000000000000002
sg6
F0.80000000000000004
sa(dp563
g3
F0.40000000000000002
sg4
F0.59999999999999998
sg5
F0.40000000000000002
sg6
F1
sa(dp564
g3
F0.40000000000000002
sg4
F0.59999999999999998
sg5
F0.59999999999999998
sg6
F0
sa(dp565
g3
F0.40000000000000002
sg4
F0.59999999999999998
sg5
F0.59999999999999998
sg6
F0.20000000000000001
sa(dp566
g3
F0.40000000000000002
sg4
F0.59999999999999998
sg5
F0.59999999999999998
sg6
F0.40000000000000002
sa(dp567
g3
F0.40000000000000002
sg4
F0.59999999999999998
sg5
F0.59999999999999998
sg6
F0.59999999999999998
sa(dp568
g3
F0.40000000000000002
sg4
F0.59999999999999998
sg5
F0.59999999999999998
sg6
F0.80000000000000004
sa(dp569
g3
F0.40000000000000002
sg4
F0.59999999999999998
sg5
F0.59999999999999998
sg6
F1
sa(dp570
g3
F0.40000000000000002
sg4
F0.59999999999999998
sg5
F0.80000000000000004
sg6
F0
sa(dp571
g3
F0.40000000000000002
sg4
F0.59999999999999998
sg5
F0.80000000000000004
sg6
F0.20000000000000001
sa(dp572
g3
F0.40000000000000002
sg4
F0.59999999999999998
sg5
F0.80000000000000004
sg6
F0.40000000000000002
sa(dp573
g3
F0.40000000000000002
sg4
F0.59999999999999998
sg5
F0.80000000000000004
sg6
F0.59999999999999998
sa(dp574
g3
F0.40000000000000002
sg4
F0.59999999999999998
sg5
F0.80000000000000004
sg6
F0.80000000000000004
sa(dp575
g3
F0.40000000000000002
sg4
F0.59999999999999998
sg5
F0.80000000000000004
sg6
F1
sa(dp576
g3
F0.40000000000000002
sg4
F0.59999999999999998
sg5
F1
sg6
F0
sa(dp577
g3
F0.40000000000000002
sg4
F0.59999999999999998
sg5
F1
sg6
F0.20000000000000001
sa(dp578
g3
F0.40000000000000002
sg4
F0.59999999999999998
sg5
F1
sg6
F0.40000000000000002
sa(dp579
g3
F0.40000000000000002
sg4
F0.59999999999999998
sg5
F1
sg6
F0.59999999999999998
sa(dp580
g3
F0.40000000000000002
sg4
F0.59999999999999998
sg5
F1
sg6
F0.80000000000000004
sa(dp581
g3
F0.40000000000000002
sg4
F0.59999999999999998
sg5
F1
sg6
F1
sa(dp582
g3
F0.40000000000000002
sg4
F0.80000000000000004
sg5
F0
sg6
F0
sa(dp583
g3
F0.40000000000000002
sg4
F0.80000000000000004
sg5
F0
sg6
F0.20000000000000001
sa(dp584
g3
F0.40000000000000002
sg4
F0.80000000000000004
sg5
F0
sg6
F0.40000000000000002
sa(dp585
g3
F0.40000000000000002
sg4
F0.80000000000000004
sg5
F0
sg6
F0.59999999999999998
sa(dp586
g3
F0.40000000000000002
sg4
F0.80000000000000004
sg5
F0
sg6
F0.80000000000000004
sa(dp587
g3
F0.40000000000000002
sg4
F0.80000000000000004
sg5
F0
sg6
F1
sa(dp588
g3
F0.40000000000000002
sg4
F0.80000000000000004
sg5
F0.20000000000000001
sg6
F0
sa(dp589
g3
F0.40000000000000002
sg4
F0.80000000000000004
sg5
F0.20000000000000001
sg6
F0.20000000000000001
sa(dp590
g3
F0.40000000000000002
sg4
F0.80000000000000004
sg5
F0.20000000000000001
sg6
F0.40000000000000002
sa(dp591
g3
F0.40000000000000002
sg4
F0.80000000000000004
sg5
F0.20000000000000001
sg6
F0.59999999999999998
sa(dp592
g3
F0.40000000000000002
sg4
F0.80000000000000004
sg5
F0.20000000000000001
sg6
F0.80000000000000004
sa(dp593
g3
F0.40000000000000002
sg4
F0.80000000000000004
sg5
F0.20000000000000001
sg6
F1
sa(dp594
g3
F0.40000000000000002
sg4
F0.80000000000000004
sg5
F0.40000000000000002
sg6
F0
sa(dp595
g3
F0.40000000000000002
sg4
F0.80000000000000004
sg5
F0.40000000000000002
sg6
F0.20000000000000001
sa(dp596
g3
F0.40000000000000002
sg4
F0.80000000000000004
sg5
F0.40000000000000002
sg6
F0.40000000000000002
sa(dp597
g3
F0.40000000000000002
sg4
F0.80000000000000004
sg5
F0.40000000000000002
sg6
F0.59999999999999998
sa(dp598
g3
F0.40000000000000002
sg4
F0.80000000000000004
sg5
F0.40000000000000002
sg6
F0.80000000000000004
sa(dp599
g3
F0.40000000000000002
sg4
F0.80000000000000004
sg5
F0.40000000000000002
sg6
F1
sa(dp600
g3
F0.40000000000000002
sg4
F0.80000000000000004
sg5
F0.59999999999999998
sg6
F0
sa(dp601
g3
F0.40000000000000002
sg4
F0.80000000000000004
sg5
F0.59999999999999998
sg6
F0.20000000000000001
sa(dp602
g3
F0.40000000000000002
sg4
F0.80000000000000004
sg5
F0.59999999999999998
sg6
F0.40000000000000002
sa(dp603
g3
F0.40000000000000002
sg4
F0.80000000000000004
sg5
F0.59999999999999998
sg6
F0.59999999999999998
sa(dp604
g3
F0.40000000000000002
sg4
F0.80000000000000004
sg5
F0.59999999999999998
sg6
F0.80000000000000004
sa(dp605
g3
F0.40000000000000002
sg4
F0.80000000000000004
sg5
F0.59999999999999998
sg6
F1
sa(dp606
g3
F0.40000000000000002
sg4
F0.80000000000000004
sg5
F0.80000000000000004
sg6
F0
sa(dp607
g3
F0.40000000000000002
sg4
F0.80000000000000004
sg5
F0.80000000000000004
sg6
F0.20000000000000001
sa(dp608
g3
F0.40000000000000002
sg4
F0.80000000000000004
sg5
F0.80000000000000004
sg6
F0.40000000000000002
sa(dp609
g3
F0.40000000000000002
sg4
F0.80000000000000004
sg5
F0.80000000000000004
sg6
F0.59999999999999998
sa(dp610
g3
F0.40000000000000002
sg4
F0.80000000000000004
sg5
F0.80000000000000004
sg6
F0.80000000000000004
sa(dp611
g3
F0.40000000000000002
sg4
F0.80000000000000004
sg5
F0.80000000000000004
sg6
F1
sa(dp612
g3
F0.40000000000000002
sg4
F0.80000000000000004
sg5
F1
sg6
F0
sa(dp613
g3
F0.40000000000000002
sg4
F0.80000000000000004
sg5
F1
sg6
F0.20000000000000001
sa(dp614
g3
F0.40000000000000002
sg4
F0.80000000000000004
sg5
F1
sg6
F0.40000000000000002
sa(dp615
g3
F0.40000000000000002
sg4
F0.80000000000000004
sg5
F1
sg6
F0.59999999999999998
sa(dp616
g3
F0.40000000000000002
sg4
F0.80000000000000004
sg5
F1
sg6
F0.80000000000000004
sa(dp617
g3
F0.40000000000000002
sg4
F0.80000000000000004
sg5
F1
sg6
F1
sa(dp618
g3
F0.40000000000000002
sg4
F1
sg5
F0
sg6
F0
sa(dp619
g3
F0.40000000000000002
sg4
F1
sg5
F0
sg6
F0.20000000000000001
sa(dp620
g3
F0.40000000000000002
sg4
F1
sg5
F0
sg6
F0.40000000000000002
sa(dp621
g3
F0.40000000000000002
sg4
F1
sg5
F0
sg6
F0.59999999999999998
sa(dp622
g3
F0.40000000000000002
sg4
F1
sg5
F0
sg6
F0.80000000000000004
sa(dp623
g3
F0.40000000000000002
sg4
F1
sg5
F0
sg6
F1
sa(dp624
g3
F0.40000000000000002
sg4
F1
sg5
F0.20000000000000001
sg6
F0
sa(dp625
g3
F0.40000000000000002
sg4
F1
sg5
F0.20000000000000001
sg6
F0.20000000000000001
sa(dp626
g3
F0.40000000000000002
sg4
F1
sg5
F0.20000000000000001
sg6
F0.40000000000000002
sa(dp627
g3
F0.40000000000000002
sg4
F1
sg5
F0.20000000000000001
sg6
F0.59999999999999998
sa(dp628
g3
F0.40000000000000002
sg4
F1
sg5
F0.20000000000000001
sg6
F0.80000000000000004
sa(dp629
g3
F0.40000000000000002
sg4
F1
sg5
F0.20000000000000001
sg6
F1
sa(dp630
g3
F0.40000000000000002
sg4
F1
sg5
F0.40000000000000002
sg6
F0
sa(dp631
g3
F0.40000000000000002
sg4
F1
sg5
F0.40000000000000002
sg6
F0.20000000000000001
sa(dp632
g3
F0.40000000000000002
sg4
F1
sg5
F0.40000000000000002
sg6
F0.40000000000000002
sa(dp633
g3
F0.40000000000000002
sg4
F1
sg5
F0.40000000000000002
sg6
F0.59999999999999998
sa(dp634
g3
F0.40000000000000002
sg4
F1
sg5
F0.40000000000000002
sg6
F0.80000000000000004
sa(dp635
g3
F0.40000000000000002
sg4
F1
sg5
F0.40000000000000002
sg6
F1
sa(dp636
g3
F0.40000000000000002
sg4
F1
sg5
F0.59999999999999998
sg6
F0
sa(dp637
g3
F0.40000000000000002
sg4
F1
sg5
F0.59999999999999998
sg6
F0.20000000000000001
sa(dp638
g3
F0.40000000000000002
sg4
F1
sg5
F0.59999999999999998
sg6
F0.40000000000000002
sa(dp639
g3
F0.40000000000000002
sg4
F1
sg5
F0.59999999999999998
sg6
F0.59999999999999998
sa(dp640
g3
F0.40000000000000002
sg4
F1
sg5
F0.59999999999999998
sg6
F0.80000000000000004
sa(dp641
g3
F0.40000000000000002
sg4
F1
sg5
F0.59999999999999998
sg6
F1
sa(dp642
g3
F0.40000000000000002
sg4
F1
sg5
F0.80000000000000004
sg6
F0
sa(dp643
g3
F0.40000000000000002
sg4
F1
sg5
F0.80000000000000004
sg6
F0.20000000000000001
sa(dp644
g3
F0.40000000000000002
sg4
F1
sg5
F0.80000000000000004
sg6
F0.40000000000000002
sa(dp645
g3
F0.40000000000000002
sg4
F1
sg5
F0.80000000000000004
sg6
F0.59999999999999998
sa(dp646
g3
F0.40000000000000002
sg4
F1
sg5
F0.80000000000000004
sg6
F0.80000000000000004
sa(dp647
g3
F0.40000000000000002
sg4
F1
sg5
F0.80000000000000004
sg6
F1
sa(dp648
g3
F0.40000000000000002
sg4
F1
sg5
F1
sg6
F0
sa(dp649
g3
F0.40000000000000002
sg4
F1
sg5
F1
sg6
F0.20000000000000001
sa(dp650
g3
F0.40000000000000002
sg4
F1
sg5
F1
sg6
F0.40000000000000002
sa(dp651
g3
F0.40000000000000002
sg4
F1
sg5
F1
sg6
F0.59999999999999998
sa(dp652
g3
F0.40000000000000002
sg4
F1
sg5
F1
sg6
F0.80000000000000004
sa(dp653
g3
F0.40000000000000002
sg4
F1
sg5
F1
sg6
F1
sa(dp654
g3
F0.59999999999999998
sg4
F0
sg5
F0
sg6
F0
sa(dp655
g3
F0.59999999999999998
sg4
F0
sg5
F0
sg6
F0.20000000000000001
sa(dp656
g3
F0.59999999999999998
sg4
F0
sg5
F0
sg6
F0.40000000000000002
sa(dp657
g3
F0.59999999999999998
sg4
F0
sg5
F0
sg6
F0.59999999999999998
sa(dp658
g3
F0.59999999999999998
sg4
F0
sg5
F0
sg6
F0.80000000000000004
sa(dp659
g3
F0.59999999999999998
sg4
F0
sg5
F0
sg6
F1
sa(dp660
g3
F0.59999999999999998
sg4
F0
sg5
F0.20000000000000001
sg6
F0
sa(dp661
g3
F0.59999999999999998
sg4
F0
sg5
F0.20000000000000001
sg6
F0.20000000000000001
sa(dp662
g3
F0.59999999999999998
sg4
F0
sg5
F0.20000000000000001
sg6
F0.40000000000000002
sa(dp663
g3
F0.59999999999999998
sg4
F0
sg5
F0.20000000000000001
sg6
F0.59999999999999998
sa(dp664
g3
F0.59999999999999998
sg4
F0
sg5
F0.20000000000000001
sg6
F0.80000000000000004
sa(dp665
g3
F0.59999999999999998
sg4
F0
sg5
F0.20000000000000001
sg6
F1
sa(dp666
g3
F0.59999999999999998
sg4
F0
sg5
F0.40000000000000002
sg6
F0
sa(dp667
g3
F0.59999999999999998
sg4
F0
sg5
F0.40000000000000002
sg6
F0.20000000000000001
sa(dp668
g3
F0.59999999999999998
sg4
F0
sg5
F0.40000000000000002
sg6
F0.40000000000000002
sa(dp669
g3
F0.59999999999999998
sg4
F0
sg5
F0.40000000000000002
sg6
F0.59999999999999998
sa(dp670
g3
F0.59999999999999998
sg4
F0
sg5
F0.40000000000000002
sg6
F0.80000000000000004
sa(dp671
g3
F0.59999999999999998
sg4
F0
sg5
F0.40000000000000002
sg6
F1
sa(dp672
g3
F0.59999999999999998
sg4
F0
sg5
F0.59999999999999998
sg6
F0
sa(dp673
g3
F0.59999999999999998
sg4
F0
sg5
F0.59999999999999998
sg6
F0.20000000000000001
sa(dp674
g3
F0.59999999999999998
sg4
F0
sg5
F0.59999999999999998
sg6
F0.40000000000000002
sa(dp675
g3
F0.59999999999999998
sg4
F0
sg5
F0.59999999999999998
sg6
F0.59999999999999998
sa(dp676
g3
F0.59999999999999998
sg4
F0
sg5
F0.59999999999999998
sg6
F0.80000000000000004
sa(dp677
g3
F0.59999999999999998
sg4
F0
sg5
F0.59999999999999998
sg6
F1
sa(dp678
g3
F0.59999999999999998
sg4
F0
sg5
F0.80000000000000004
sg6
F0
sa(dp679
g3
F0.59999999999999998
sg4
F0
sg5
F0.80000000000000004
sg6
F0.20000000000000001
sa(dp680
g3
F0.59999999999999998
sg4
F0
sg5
F0.80000000000000004
sg6
F0.40000000000000002
sa(dp681
g3
F0.59999999999999998
sg4
F0
sg5
F0.80000000000000004
sg6
F0.59999999999999998
sa(dp682
g3
F0.59999999999999998
sg4
F0
sg5
F0.80000000000000004
sg6
F0.80000000000000004
sa(dp683
g3
F0.59999999999999998
sg4
F0
sg5
F0.80000000000000004
sg6
F1
sa(dp684
g3
F0.59999999999999998
sg4
F0
sg5
F1
sg6
F0
sa(dp685
g3
F0.59999999999999998
sg4
F0
sg5
F1
sg6
F0.20000000000000001
sa(dp686
g3
F0.59999999999999998
sg4
F0
sg5
F1
sg6
F0.40000000000000002
sa(dp687
g3
F0.59999999999999998
sg4
F0
sg5
F1
sg6
F0.59999999999999998
sa(dp688
g3
F0.59999999999999998
sg4
F0
sg5
F1
sg6
F0.80000000000000004
sa(dp689
g3
F0.59999999999999998
sg4
F0
sg5
F1
sg6
F1
sa(dp690
g3
F0.59999999999999998
sg4
F0.20000000000000001
sg5
F0
sg6
F0
sa(dp691
g3
F0.59999999999999998
sg4
F0.20000000000000001
sg5
F0
sg6
F0.20000000000000001
sa(dp692
g3
F0.59999999999999998
sg4
F0.20000000000000001
sg5
F0
sg6
F0.40000000000000002
sa(dp693
g3
F0.59999999999999998
sg4
F0.20000000000000001
sg5
F0
sg6
F0.59999999999999998
sa(dp694
g3
F0.59999999999999998
sg4
F0.20000000000000001
sg5
F0
sg6
F0.80000000000000004
sa(dp695
g3
F0.59999999999999998
sg4
F0.20000000000000001
sg5
F0
sg6
F1
sa(dp696
g3
F0.59999999999999998
sg4
F0.20000000000000001
sg5
F0.20000000000000001
sg6
F0
sa(dp697
g3
F0.59999999999999998
sg4
F0.20000000000000001
sg5
F0.20000000000000001
sg6
F0.20000000000000001
sa(dp698
g3
F0.59999999999999998
sg4
F0.20000000000000001
sg5
F0.20000000000000001
sg6
F0.40000000000000002
sa(dp699
g3
F0.59999999999999998
sg4
F0.20000000000000001
sg5
F0.20000000000000001
sg6
F0.59999999999999998
sa(dp700
g3
F0.59999999999999998
sg4
F0.20000000000000001
sg5
F0.20000000000000001
sg6
F0.80000000000000004
sa(dp701
g3
F0.59999999999999998
sg4
F0.20000000000000001
sg5
F0.20000000000000001
sg6
F1
sa(dp702
g3
F0.59999999999999998
sg4
F0.20000000000000001
sg5
F0.40000000000000002
sg6
F0
sa(dp703
g3
F0.59999999999999998
sg4
F0.20000000000000001
sg5
F0.40000000000000002
sg6
F0.20000000000000001
sa(dp704
g3
F0.59999999999999998
sg4
F0.20000000000000001
sg5
F0.40000000000000002
sg6
F0.40000000000000002
sa(dp705
g3
F0.59999999999999998
sg4
F0.20000000000000001
sg5
F0.40000000000000002
sg6
F0.59999999999999998
sa(dp706
g3
F0.59999999999999998
sg4
F0.20000000000000001
sg5
F0.40000000000000002
sg6
F0.80000000000000004
sa(dp707
g3
F0.59999999999999998
sg4
F0.20000000000000001
sg5
F0.40000000000000002
sg6
F1
sa(dp708
g3
F0.59999999999999998
sg4
F0.20000000000000001
sg5
F0.59999999999999998
sg6
F0
sa(dp709
g3
F0.59999999999999998
sg4
F0.20000000000000001
sg5
F0.59999999999999998
sg6
F0.20000000000000001
sa(dp710
g3
F0.59999999999999998
sg4
F0.20000000000000001
sg5
F0.59999999999999998
sg6
F0.40000000000000002
sa(dp711
g3
F0.59999999999999998
sg4
F0.20000000000000001
sg5
F0.59999999999999998
sg6
F0.59999999999999998
sa(dp712
g3
F0.59999999999999998
sg4
F0.20000000000000001
sg5
F0.59999999999999998
sg6
F0.80000000000000004
sa(dp713
g3
F0.59999999999999998
sg4
F0.20000000000000001
sg5
F0.59999999999999998
sg6
F1
sa(dp714
g3
F0.59999999999999998
sg4
F0.20000000000000001
sg5
F0.80000000000000004
sg6
F0
sa(dp715
g3
F0.59999999999999998
sg4
F0.20000000000000001
sg5
F0.80000000000000004
sg6
F0.20000000000000001
sa(dp716
g3
F0.59999999999999998
sg4
F0.20000000000000001
sg5
F0.80000000000000004
sg6
F0.40000000000000002
sa(dp717
g3
F0.59999999999999998
sg4
F0.20000000000000001
sg5
F0.80000000000000004
sg6
F0.59999999999999998
sa(dp718
g3
F0.59999999999999998
sg4
F0.20000000000000001
sg5
F0.80000000000000004
sg6
F0.80000000000000004
sa(dp719
g3
F0.59999999999999998
sg4
F0.20000000000000001
sg5
F0.80000000000000004
sg6
F1
sa(dp720
g3
F0.59999999999999998
sg4
F0.20000000000000001
sg5
F1
sg6
F0
sa(dp721
g3
F0.59999999999999998
sg4
F0.20000000000000001
sg5
F1
sg6
F0.20000000000000001
sa(dp722
g3
F0.59999999999999998
sg4
F0.20000000000000001
sg5
F1
sg6
F0.40000000000000002
sa(dp723
g3
F0.59999999999999998
sg4
F0.20000000000000001
sg5
F1
sg6
F0.59999999999999998
sa(dp724
g3
F0.59999999999999998
sg4
F0.20000000000000001
sg5
F1
sg6
F0.80000000000000004
sa(dp725
g3
F0.59999999999999998
sg4
F0.20000000000000001
sg5
F1
sg6
F1
sa(dp726
g3
F0.59999999999999998
sg4
F0.40000000000000002
sg5
F0
sg6
F0
sa(dp727
g3
F0.59999999999999998
sg4
F0.40000000000000002
sg5
F0
sg6
F0.20000000000000001
sa(dp728
g3
F0.59999999999999998
sg4
F0.40000000000000002
sg5
F0
sg6
F0.40000000000000002
sa(dp729
g3
F0.59999999999999998
sg4
F0.40000000000000002
sg5
F0
sg6
F0.59999999999999998
sa(dp730
g3
F0.59999999999999998
sg4
F0.40000000000000002
sg5
F0
sg6
F0.80000000000000004
sa(dp731
g3
F0.59999999999999998
sg4
F0.40000000000000002
sg5
F0
sg6
F1
sa(dp732
g3
F0.59999999999999998
sg4
F0.40000000000000002
sg5
F0.20000000000000001
sg6
F0
sa(dp733
g3
F0.59999999999999998
sg4
F0.40000000000000002
sg5
F0.20000000000000001
sg6
F0.20000000000000001
sa(dp734
g3
F0.59999999999999998
sg4
F0.40000000000000002
sg5
F0.20000000000000001
sg6
F0.40000000000000002
sa(dp735
g3
F0.59999999999999998
sg4
F0.40000000000000002
sg5
F0.20000000000000001
sg6
F0.59999999999999998
sa(dp736
g3
F0.59999999999999998
sg4
F0.40000000000000002
sg5
F0.20000000000000001
sg6
F0.80000000000000004
sa(dp737
g3
F0.59999999999999998
sg4
F0.40000000000000002
sg5
F0.20000000000000001
sg6
F1
sa(dp738
g3
F0.59999999999999998
sg4
F0.40000000000000002
sg5
F0.40000000000000002
sg6
F0
sa(dp739
g3
F0.59999999999999998
sg4
F0.40000000000000002
sg5
F0.40000000000000002
sg6
F0.20000000000000001
sa(dp740
g3
F0.59999999999999998
sg4
F0.40000000000000002
sg5
F0.40000000000000002
sg6
F0.40000000000000002
sa(dp741
g3
F0.59999999999999998
sg4
F0.40000000000000002
sg5
F0.40000000000000002
sg6
F0.59999999999999998
sa(dp742
g3
F0.59999999999999998
sg4
F0.40000000000000002
sg5
F0.40000000000000002
sg6
F0.80000000000000004
sa(dp743
g3
F0.59999999999999998
sg4
F0.40000000000000002
sg5
F0.40000000000000002
sg6
F1
sa(dp744
g3
F0.59999999999999998
sg4
F0.40000000000000002
sg5
F0.59999999999999998
sg6
F0
sa(dp745
g3
F0.59999999999999998
sg4
F0.40000000000000002
sg5
F0.59999999999999998
sg6
F0.20000000000000001
sa(dp746
g3
F0.59999999999999998
sg4
F0.40000000000000002
sg5
F0.59999999999999998
sg6
F0.40000000000000002
sa(dp747
g3
F0.59999999999999998
sg4
F0.40000000000000002
sg5
F0.59999999999999998
sg6
F0.59999999999999998
sa(dp748
g3
F0.59999999999999998
sg4
F0.40000000000000002
sg5
F0.59999999999999998
sg6
F0.80000000000000004
sa(dp749
g3
F0.59999999999999998
sg4
F0.40000000000000002
sg5
F0.59999999999999998
sg6
F1
sa(dp750
g3
F0.59999999999999998
sg4
F0.40000000000000002
sg5
F0.80000000000000004
sg6
F0
sa(dp751
g3
F0.59999999999999998
sg4
F0.40000000000000002
sg5
F0.80000000000000004
sg6
F0.20000000000000001
sa(dp752
g3
F0.59999999999999998
sg4
F0.40000000000000002
sg5
F0.80000000000000004
sg6
F0.40000000000000002
sa(dp753
g3
F0.59999999999999998
sg4
F0.40000000000000002
sg5
F0.80000000000000004
sg6
F0.59999999999999998
sa(dp754
g3
F0.59999999999999998
sg4
F0.40000000000000002
sg5
F0.80000000000000004
sg6
F0.80000000000000004
sa(dp755
g3
F0.59999999999999998
sg4
F0.40000000000000002
sg5
F0.80000000000000004
sg6
F1
sa(dp756
g3
F0.59999999999999998
sg4
F0.40000000000000002
sg5
F1
sg6
F0
sa(dp757
g3
F0.59999999999999998
sg4
F0.40000000000000002
sg5
F1
sg6
F0.20000000000000001
sa(dp758
g3
F0.59999999999999998
sg4
F0.40000000000000002
sg5
F1
sg6
F0.40000000000000002
sa(dp759
g3
F0.59999999999999998
sg4
F0.40000000000000002
sg5
F1
sg6
F0.59999999999999998
sa(dp760
g3
F0.59999999999999998
sg4
F0.40000000000000002
sg5
F1
sg6
F0.80000000000000004
sa(dp761
g3
F0.59999999999999998
sg4
F0.40000000000000002
sg5
F1
sg6
F1
sa(dp762
g3
F0.59999999999999998
sg4
F0.59999999999999998
sg5
F0
sg6
F0
sa(dp763
g3
F0.59999999999999998
sg4
F0.59999999999999998
sg5
F0
sg6
F0.20000000000000001
sa(dp764
g3
F0.59999999999999998
sg4
F0.59999999999999998
sg5
F0
sg6
F0.40000000000000002
sa(dp765
g3
F0.59999999999999998
sg4
F0.59999999999999998
sg5
F0
sg6
F0.59999999999999998
sa(dp766
g3
F0.59999999999999998
sg4
F0.59999999999999998
sg5
F0
sg6
F0.80000000000000004
sa(dp767
g3
F0.59999999999999998
sg4
F0.59999999999999998
sg5
F0
sg6
F1
sa(dp768
g3
F0.59999999999999998
sg4
F0.59999999999999998
sg5
F0.20000000000000001
sg6
F0
sa(dp769
g3
F0.59999999999999998
sg4
F0.59999999999999998
sg5
F0.20000000000000001
sg6
F0.20000000000000001
sa(dp770
g3
F0.59999999999999998
sg4
F0.59999999999999998
sg5
F0.20000000000000001
sg6
F0.40000000000000002
sa(dp771
g3
F0.59999999999999998
sg4
F0.59999999999999998
sg5
F0.20000000000000001
sg6
F0.59999999999999998
sa(dp772
g3
F0.59999999999999998
sg4
F0.59999999999999998
sg5
F0.20000000000000001
sg6
F0.80000000000000004
sa(dp773
g3
F0.59999999999999998
sg4
F0.59999999999999998
sg5
F0.20000000000000001
sg6
F1
sa(dp774
g3
F0.59999999999999998
sg4
F0.59999999999999998
sg5
F0.40000000000000002
sg6
F0
sa(dp775
g3
F0.59999999999999998
sg4
F0.59999999999999998
sg5
F0.40000000000000002
sg6
F0.20000000000000001
sa(dp776
g3
F0.59999999999999998
sg4
F0.59999999999999998
sg5
F0.40000000000000002
sg6
F0.40000000000000002
sa(dp777
g3
F0.59999999999999998
sg4
F0.59999999999999998
sg5
F0.40000000000000002
sg6
F0.59999999999999998
sa(dp778
g3
F0.59999999999999998
sg4
F0.59999999999999998
sg5
F0.40000000000000002
sg6
F0.80000000000000004
sa(dp779
g3
F0.59999999999999998
sg4
F0.59999999999999998
sg5
F0.40000000000000002
sg6
F1
sa(dp780
g3
F0.59999999999999998
sg4
F0.59999999999999998
sg5
F0.59999999999999998
sg6
F0
sa(dp781
g3
F0.59999999999999998
sg4
F0.59999999999999998
sg5
F0.59999999999999998
sg6
F0.20000000000000001
sa(dp782
g3
F0.59999999999999998
sg4
F0.59999999999999998
sg5
F0.59999999999999998
sg6
F0.40000000000000002
sa(dp783
g3
F0.59999999999999998
sg4
F0.59999999999999998
sg5
F0.59999999999999998
sg6
F0.59999999999999998
sa(dp784
g3
F0.59999999999999998
sg4
F0.59999999999999998
sg5
F0.59999999999999998
sg6
F0.80000000000000004
sa(dp785
g3
F0.59999999999999998
sg4
F0.59999999999999998
sg5
F0.59999999999999998
sg6
F1
sa(dp786
g3
F0.59999999999999998
sg4
F0.59999999999999998
sg5
F0.80000000000000004
sg6
F0
sa(dp787
g3
F0.59999999999999998
sg4
F0.59999999999999998
sg5
F0.80000000000000004
sg6
F0.20000000000000001
sa(dp788
g3
F0.59999999999999998
sg4
F0.59999999999999998
sg5
F0.80000000000000004
sg6
F0.40000000000000002
sa(dp789
g3
F0.59999999999999998
sg4
F0.59999999999999998
sg5
F0.80000000000000004
sg6
F0.59999999999999998
sa(dp790
g3
F0.59999999999999998
sg4
F0.59999999999999998
sg5
F0.80000000000000004
sg6
F0.80000000000000004
sa(dp791
g3
F0.59999999999999998
sg4
F0.59999999999999998
sg5
F0.80000000000000004
sg6
F1
sa(dp792
g3
F0.59999999999999998
sg4
F0.59999999999999998
sg5
F1
sg6
F0
sa(dp793
g3
F0.59999999999999998
sg4
F0.59999999999999998
sg5
F1
sg6
F0.20000000000000001
sa(dp794
g3
F0.59999999999999998
sg4
F0.59999999999999998
sg5
F1
sg6
F0.40000000000000002
sa(dp795
g3
F0.59999999999999998
sg4
F0.59999999999999998
sg5
F1
sg6
F0.59999999999999998
sa(dp796
g3
F0.59999999999999998
sg4
F0.59999999999999998
sg5
F1
sg6
F0.80000000000000004
sa(dp797
g3
F0.59999999999999998
sg4
F0.59999999999999998
sg5
F1
sg6
F1
sa(dp798
g3
F0.59999999999999998
sg4
F0.80000000000000004
sg5
F0
sg6
F0
sa(dp799
g3
F0.59999999999999998
sg4
F0.80000000000000004
sg5
F0
sg6
F0.20000000000000001
sa(dp800
g3
F0.59999999999999998
sg4
F0.80000000000000004
sg5
F0
sg6
F0.40000000000000002
sa(dp801
g3
F0.59999999999999998
sg4
F0.80000000000000004
sg5
F0
sg6
F0.59999999999999998
sa(dp802
g3
F0.59999999999999998
sg4
F0.80000000000000004
sg5
F0
sg6
F0.80000000000000004
sa(dp803
g3
F0.59999999999999998
sg4
F0.80000000000000004
sg5
F0
sg6
F1
sa(dp804
g3
F0.59999999999999998
sg4
F0.80000000000000004
sg5
F0.20000000000000001
sg6
F0
sa(dp805
g3
F0.59999999999999998
sg4
F0.80000000000000004
sg5
F0.20000000000000001
sg6
F0.20000000000000001
sa(dp806
g3
F0.59999999999999998
sg4
F0.80000000000000004
sg5
F0.20000000000000001
sg6
F0.40000000000000002
sa(dp807
g3
F0.59999999999999998
sg4
F0.80000000000000004
sg5
F0.20000000000000001
sg6
F0.59999999999999998
sa(dp808
g3
F0.59999999999999998
sg4
F0.80000000000000004
sg5
F0.20000000000000001
sg6
F0.80000000000000004
sa(dp809
g3
F0.59999999999999998
sg4
F0.80000000000000004
sg5
F0.20000000000000001
sg6
F1
sa(dp810
g3
F0.59999999999999998
sg4
F0.80000000000000004
sg5
F0.40000000000000002
sg6
F0
sa(dp811
g3
F0.59999999999999998
sg4
F0.80000000000000004
sg5
F0.40000000000000002
sg6
F0.20000000000000001
sa(dp812
g3
F0.59999999999999998
sg4
F0.80000000000000004
sg5
F0.40000000000000002
sg6
F0.40000000000000002
sa(dp813
g3
F0.59999999999999998
sg4
F0.80000000000000004
sg5
F0.40000000000000002
sg6
F0.59999999999999998
sa(dp814
g3
F0.59999999999999998
sg4
F0.80000000000000004
sg5
F0.40000000000000002
sg6
F0.80000000000000004
sa(dp815
g3
F0.59999999999999998
sg4
F0.80000000000000004
sg5
F0.40000000000000002
sg6
F1
sa(dp816
g3
F0.59999999999999998
sg4
F0.80000000000000004
sg5
F0.59999999999999998
sg6
F0
sa(dp817
g3
F0.59999999999999998
sg4
F0.80000000000000004
sg5
F0.59999999999999998
sg6
F0.20000000000000001
sa(dp818
g3
F0.59999999999999998
sg4
F0.80000000000000004
sg5
F0.59999999999999998
sg6
F0.40000000000000002
sa(dp819
g3
F0.59999999999999998
sg4
F0.80000000000000004
sg5
F0.59999999999999998
sg6
F0.59999999999999998
sa(dp820
g3
F0.59999999999999998
sg4
F0.80000000000000004
sg5
F0.59999999999999998
sg6
F0.80000000000000004
sa(dp821
g3
F0.59999999999999998
sg4
F0.80000000000000004
sg5
F0.59999999999999998
sg6
F1
sa(dp822
g3
F0.59999999999999998
sg4
F0.80000000000000004
sg5
F0.80000000000000004
sg6
F0
sa(dp823
g3
F0.59999999999999998
sg4
F0.80000000000000004
sg5
F0.80000000000000004
sg6
F0.20000000000000001
sa(dp824
g3
F0.59999999999999998
sg4
F0.80000000000000004
sg5
F0.80000000000000004
sg6
F0.40000000000000002
sa(dp825
g3
F0.59999999999999998
sg4
F0.80000000000000004
sg5
F0.80000000000000004
sg6
F0.59999999999999998
sa(dp826
g3
F0.59999999999999998
sg4
F0.80000000000000004
sg5
F0.80000000000000004
sg6
F0.80000000000000004
sa(dp827
g3
F0.59999999999999998
sg4
F0.80000000000000004
sg5
F0.80000000000000004
sg6
F1
sa(dp828
g3
F0.59999999999999998
sg4
F0.80000000000000004
sg5
F1
sg6
F0
sa(dp829
g3
F0.59999999999999998
sg4
F0.80000000000000004
sg5
F1
sg6
F0.20000000000000001
sa(dp830
g3
F0.59999999999999998
sg4
F0.80000000000000004
sg5
F1
sg6
F0.40000000000000002
sa(dp831
g3
F0.59999999999999998
sg4
F0.80000000000000004
sg5
F1
sg6
F0.59999999999999998
sa(dp832
g3
F0.59999999999999998
sg4
F0.80000000000000004
sg5
F1
sg6
F0.80000000000000004
sa(dp833
g3
F0.59999999999999998
sg4
F0.80000000000000004
sg5
F1
sg6
F1
sa(dp834
g3
F0.59999999999999998
sg4
F1
sg5
F0
sg6
F0
sa(dp835
g3
F0.59999999999999998
sg4
F1
sg5
F0
sg6
F0.20000000000000001
sa(dp836
g3
F0.59999999999999998
sg4
F1
sg5
F0
sg6
F0.40000000000000002
sa(dp837
g3
F0.59999999999999998
sg4
F1
sg5
F0
sg6
F0.59999999999999998
sa(dp838
g3
F0.59999999999999998
sg4
F1
sg5
F0
sg6
F0.80000000000000004
sa(dp839
g3
F0.59999999999999998
sg4
F1
sg5
F0
sg6
F1
sa(dp840
g3
F0.59999999999999998
sg4
F1
sg5
F0.20000000000000001
sg6
F0
sa(dp841
g3
F0.59999999999999998
sg4
F1
sg5
F0.20000000000000001
sg6
F0.20000000000000001
sa(dp842
g3
F0.59999999999999998
sg4
F1
sg5
F0.20000000000000001
sg6
F0.40000000000000002
sa(dp843
g3
F0.59999999999999998
sg4
F1
sg5
F0.20000000000000001
sg6
F0.59999999999999998
sa(dp844
g3
F0.59999999999999998
sg4
F1
sg5
F0.20000000000000001
sg6
F0.80000000000000004
sa(dp845
g3
F0.59999999999999998
sg4
F1
sg5
F0.20000000000000001
sg6
F1
sa(dp846
g3
F0.59999999999999998
sg4
F1
sg5
F0.40000000000000002
sg6
F0
sa(dp847
g3
F0.59999999999999998
sg4
F1
sg5
F0.40000000000000002
sg6
F0.20000000000000001
sa(dp848
g3
F0.59999999999999998
sg4
F1
sg5
F0.40000000000000002
sg6
F0.40000000000000002
sa(dp849
g3
F0.59999999999999998
sg4
F1
sg5
F0.40000000000000002
sg6
F0.59999999999999998
sa(dp850
g3
F0.59999999999999998
sg4
F1
sg5
F0.40000000000000002
sg6
F0.80000000000000004
sa(dp851
g3
F0.59999999999999998
sg4
F1
sg5
F0.40000000000000002
sg6
F1
sa(dp852
g3
F0.59999999999999998
sg4
F1
sg5
F0.59999999999999998
sg6
F0
sa(dp853
g3
F0.59999999999999998
sg4
F1
sg5
F0.59999999999999998
sg6
F0.20000000000000001
sa(dp854
g3
F0.59999999999999998
sg4
F1
sg5
F0.59999999999999998
sg6
F0.40000000000000002
sa(dp855
g3
F0.59999999999999998
sg4
F1
sg5
F0.59999999999999998
sg6
F0.59999999999999998
sa(dp856
g3
F0.59999999999999998
sg4
F1
sg5
F0.59999999999999998
sg6
F0.80000000000000004
sa(dp857
g3
F0.59999999999999998
sg4
F1
sg5
F0.59999999999999998
sg6
F1
sa(dp858
g3
F0.59999999999999998
sg4
F1
sg5
F0.80000000000000004
sg6
F0
sa(dp859
g3
F0.59999999999999998
sg4
F1
sg5
F0.80000000000000004
sg6
F0.20000000000000001
sa(dp860
g3
F0.59999999999999998
sg4
F1
sg5
F0.80000000000000004
sg6
F0.40000000000000002
sa(dp861
g3
F0.59999999999999998
sg4
F1
sg5
F0.80000000000000004
sg6
F0.59999999999999998
sa(dp862
g3
F0.59999999999999998
sg4
F1
sg5
F0.80000000000000004
sg6
F0.80000000000000004
sa(dp863
g3
F0.59999999999999998
sg4
F1
sg5
F0.80000000000000004
sg6
F1
sa(dp864
g3
F0.59999999999999998
sg4
F1
sg5
F1
sg6
F0
sa(dp865
g3
F0.59999999999999998
sg4
F1
sg5
F1
sg6
F0.20000000000000001
sa(dp866
g3
F0.59999999999999998
sg4
F1
sg5
F1
sg6
F0.40000000000000002
sa(dp867
g3
F0.59999999999999998
sg4
F1
sg5
F1
sg6
F0.59999999999999998
sa(dp868
g3
F0.59999999999999998
sg4
F1
sg5
F1
sg6
F0.80000000000000004
sa(dp869
g3
F0.59999999999999998
sg4
F1
sg5
F1
sg6
F1
sa(dp870
g3
F0.80000000000000004
sg4
F0
sg5
F0
sg6
F0
sa(dp871
g3
F0.80000000000000004
sg4
F0
sg5
F0
sg6
F0.20000000000000001
sa(dp872
g3
F0.80000000000000004
sg4
F0
sg5
F0
sg6
F0.40000000000000002
sa(dp873
g3
F0.80000000000000004
sg4
F0
sg5
F0
sg6
F0.59999999999999998
sa(dp874
g3
F0.80000000000000004
sg4
F0
sg5
F0
sg6
F0.80000000000000004
sa(dp875
g3
F0.80000000000000004
sg4
F0
sg5
F0
sg6
F1
sa(dp876
g3
F0.80000000000000004
sg4
F0
sg5
F0.20000000000000001
sg6
F0
sa(dp877
g3
F0.80000000000000004
sg4
F0
sg5
F0.20000000000000001
sg6
F0.20000000000000001
sa(dp878
g3
F0.80000000000000004
sg4
F0
sg5
F0.20000000000000001
sg6
F0.40000000000000002
sa(dp879
g3
F0.80000000000000004
sg4
F0
sg5
F0.20000000000000001
sg6
F0.59999999999999998
sa(dp880
g3
F0.80000000000000004
sg4
F0
sg5
F0.20000000000000001
sg6
F0.80000000000000004
sa(dp881
g3
F0.80000000000000004
sg4
F0
sg5
F0.20000000000000001
sg6
F1
sa(dp882
g3
F0.80000000000000004
sg4
F0
sg5
F0.40000000000000002
sg6
F0
sa(dp883
g3
F0.80000000000000004
sg4
F0
sg5
F0.40000000000000002
sg6
F0.20000000000000001
sa(dp884
g3
F0.80000000000000004
sg4
F0
sg5
F0.40000000000000002
sg6
F0.40000000000000002
sa(dp885
g3
F0.80000000000000004
sg4
F0
sg5
F0.40000000000000002
sg6
F0.59999999999999998
sa(dp886
g3
F0.80000000000000004
sg4
F0
sg5
F0.40000000000000002
sg6
F0.80000000000000004
sa(dp887
g3
F0.80000000000000004
sg4
F0
sg5
F0.40000000000000002
sg6
F1
sa(dp888
g3
F0.80000000000000004
sg4
F0
sg5
F0.59999999999999998
sg6
F0
sa(dp889
g3
F0.80000000000000004
sg4
F0
sg5
F0.59999999999999998
sg6
F0.20000000000000001
sa(dp890
g3
F0.80000000000000004
sg4
F0
sg5
F0.59999999999999998
sg6
F0.40000000000000002
sa(dp891
g3
F0.80000000000000004
sg4
F0
sg5
F0.59999999999999998
sg6
F0.59999999999999998
sa(dp892
g3
F0.80000000000000004
sg4
F0
sg5
F0.59999999999999998
sg6
F0.80000000000000004
sa(dp893
g3
F0.80000000000000004
sg4
F0
sg5
F0.59999999999999998
sg6
F1
sa(dp894
g3
F0.80000000000000004
sg4
F0
sg5
F0.80000000000000004
sg6
F0
sa(dp895
g3
F0.80000000000000004
sg4
F0
sg5
F0.80000000000000004
sg6
F0.20000000000000001
sa(dp896
g3
F0.80000000000000004
sg4
F0
sg5
F0.80000000000000004
sg6
F0.40000000000000002
sa(dp897
g3
F0.80000000000000004
sg4
F0
sg5
F0.80000000000000004
sg6
F0.59999999999999998
sa(dp898
g3
F0.80000000000000004
sg4
F0
sg5
F0.80000000000000004
sg6
F0.80000000000000004
sa(dp899
g3
F0.80000000000000004
sg4
F0
sg5
F0.80000000000000004
sg6
F1
sa(dp900
g3
F0.80000000000000004
sg4
F0
sg5
F1
sg6
F0
sa(dp901
g3
F0.80000000000000004
sg4
F0
sg5
F1
sg6
F0.20000000000000001
sa(dp902
g3
F0.80000000000000004
sg4
F0
sg5
F1
sg6
F0.40000000000000002
sa(dp903
g3
F0.80000000000000004
sg4
F0
sg5
F1
sg6
F0.59999999999999998
sa(dp904
g3
F0.80000000000000004
sg4
F0
sg5
F1
sg6
F0.80000000000000004
sa(dp905
g3
F0.80000000000000004
sg4
F0
sg5
F1
sg6
F1
sa(dp906
g3
F0.80000000000000004
sg4
F0.20000000000000001
sg5
F0
sg6
F0
sa(dp907
g3
F0.80000000000000004
sg4
F0.20000000000000001
sg5
F0
sg6
F0.20000000000000001
sa(dp908
g3
F0.80000000000000004
sg4
F0.20000000000000001
sg5
F0
sg6
F0.40000000000000002
sa(dp909
g3
F0.80000000000000004
sg4
F0.20000000000000001
sg5
F0
sg6
F0.59999999999999998
sa(dp910
g3
F0.80000000000000004
sg4
F0.20000000000000001
sg5
F0
sg6
F0.80000000000000004
sa(dp911
g3
F0.80000000000000004
sg4
F0.20000000000000001
sg5
F0
sg6
F1
sa(dp912
g3
F0.80000000000000004
sg4
F0.20000000000000001
sg5
F0.20000000000000001
sg6
F0
sa(dp913
g3
F0.80000000000000004
sg4
F0.20000000000000001
sg5
F0.20000000000000001
sg6
F0.20000000000000001
sa(dp914
g3
F0.80000000000000004
sg4
F0.20000000000000001
sg5
F0.20000000000000001
sg6
F0.40000000000000002
sa(dp915
g3
F0.80000000000000004
sg4
F0.20000000000000001
sg5
F0.20000000000000001
sg6
F0.59999999999999998
sa(dp916
g3
F0.80000000000000004
sg4
F0.20000000000000001
sg5
F0.20000000000000001
sg6
F0.80000000000000004
sa(dp917
g3
F0.80000000000000004
sg4
F0.20000000000000001
sg5
F0.20000000000000001
sg6
F1
sa(dp918
g3
F0.80000000000000004
sg4
F0.20000000000000001
sg5
F0.40000000000000002
sg6
F0
sa(dp919
g3
F0.80000000000000004
sg4
F0.20000000000000001
sg5
F0.40000000000000002
sg6
F0.20000000000000001
sa(dp920
g3
F0.80000000000000004
sg4
F0.20000000000000001
sg5
F0.40000000000000002
sg6
F0.40000000000000002
sa(dp921
g3
F0.80000000000000004
sg4
F0.20000000000000001
sg5
F0.40000000000000002
sg6
F0.59999999999999998
sa(dp922
g3
F0.80000000000000004
sg4
F0.20000000000000001
sg5
F0.40000000000000002
sg6
F0.80000000000000004
sa(dp923
g3
F0.80000000000000004
sg4
F0.20000000000000001
sg5
F0.40000000000000002
sg6
F1
sa(dp924
g3
F0.80000000000000004
sg4
F0.20000000000000001
sg5
F0.59999999999999998
sg6
F0
sa(dp925
g3
F0.80000000000000004
sg4
F0.20000000000000001
sg5
F0.59999999999999998
sg6
F0.20000000000000001
sa(dp926
g3
F0.80000000000000004
sg4
F0.20000000000000001
sg5
F0.59999999999999998
sg6
F0.40000000000000002
sa(dp927
g3
F0.80000000000000004
sg4
F0.20000000000000001
sg5
F0.59999999999999998
sg6
F0.59999999999999998
sa(dp928
g3
F0.80000000000000004
sg4
F0.20000000000000001
sg5
F0.59999999999999998
sg6
F0.80000000000000004
sa(dp929
g3
F0.80000000000000004
sg4
F0.20000000000000001
sg5
F0.59999999999999998
sg6
F1
sa(dp930
g3
F0.80000000000000004
sg4
F0.20000000000000001
sg5
F0.80000000000000004
sg6
F0
sa(dp931
g3
F0.80000000000000004
sg4
F0.20000000000000001
sg5
F0.80000000000000004
sg6
F0.20000000000000001
sa(dp932
g3
F0.80000000000000004
sg4
F0.20000000000000001
sg5
F0.80000000000000004
sg6
F0.40000000000000002
sa(dp933
g3
F0.80000000000000004
sg4
F0.20000000000000001
sg5
F0.80000000000000004
sg6
F0.59999999999999998
sa(dp934
g3
F0.80000000000000004
sg4
F0.20000000000000001
sg5
F0.80000000000000004
sg6
F0.80000000000000004
sa(dp935
g3
F0.80000000000000004
sg4
F0.20000000000000001
sg5
F0.80000000000000004
sg6
F1
sa(dp936
g3
F0.80000000000000004
sg4
F0.20000000000000001
sg5
F1
sg6
F0
sa(dp937
g3
F0.80000000000000004
sg4
F0.20000000000000001
sg5
F1
sg6
F0.20000000000000001
sa(dp938
g3
F0.80000000000000004
sg4
F0.20000000000000001
sg5
F1
sg6
F0.40000000000000002
sa(dp939
g3
F0.80000000000000004
sg4
F0.20000000000000001
sg5
F1
sg6
F0.59999999999999998
sa(dp940
g3
F0.80000000000000004
sg4
F0.20000000000000001
sg5
F1
sg6
F0.80000000000000004
sa(dp941
g3
F0.80000000000000004
sg4
F0.20000000000000001
sg5
F1
sg6
F1
sa(dp942
g3
F0.80000000000000004
sg4
F0.40000000000000002
sg5
F0
sg6
F0
sa(dp943
g3
F0.80000000000000004
sg4
F0.40000000000000002
sg5
F0
sg6
F0.20000000000000001
sa(dp944
g3
F0.80000000000000004
sg4
F0.40000000000000002
sg5
F0
sg6
F0.40000000000000002
sa(dp945
g3
F0.80000000000000004
sg4
F0.40000000000000002
sg5
F0
sg6
F0.59999999999999998
sa(dp946
g3
F0.80000000000000004
sg4
F0.40000000000000002
sg5
F0
sg6
F0.80000000000000004
sa(dp947
g3
F0.80000000000000004
sg4
F0.40000000000000002
sg5
F0
sg6
F1
sa(dp948
g3
F0.80000000000000004
sg4
F0.40000000000000002
sg5
F0.20000000000000001
sg6
F0
sa(dp949
g3
F0.80000000000000004
sg4
F0.40000000000000002
sg5
F0.20000000000000001
sg6
F0.20000000000000001
sa(dp950
g3
F0.80000000000000004
sg4
F0.40000000000000002
sg5
F0.20000000000000001
sg6
F0.40000000000000002
sa(dp951
g3
F0.80000000000000004
sg4
F0.40000000000000002
sg5
F0.20000000000000001
sg6
F0.59999999999999998
sa(dp952
g3
F0.80000000000000004
sg4
F0.40000000000000002
sg5
F0.20000000000000001
sg6
F0.80000000000000004
sa(dp953
g3
F0.80000000000000004
sg4
F0.40000000000000002
sg5
F0.20000000000000001
sg6
F1
sa(dp954
g3
F0.80000000000000004
sg4
F0.40000000000000002
sg5
F0.40000000000000002
sg6
F0
sa(dp955
g3
F0.80000000000000004
sg4
F0.40000000000000002
sg5
F0.40000000000000002
sg6
F0.20000000000000001
sa(dp956
g3
F0.80000000000000004
sg4
F0.40000000000000002
sg5
F0.40000000000000002
sg6
F0.40000000000000002
sa(dp957
g3
F0.80000000000000004
sg4
F0.40000000000000002
sg5
F0.40000000000000002
sg6
F0.59999999999999998
sa(dp958
g3
F0.80000000000000004
sg4
F0.40000000000000002
sg5
F0.40000000000000002
sg6
F0.80000000000000004
sa(dp959
g3
F0.80000000000000004
sg4
F0.40000000000000002
sg5
F0.40000000000000002
sg6
F1
sa(dp960
g3
F0.80000000000000004
sg4
F0.40000000000000002
sg5
F0.59999999999999998
sg6
F0
sa(dp961
g3
F0.80000000000000004
sg4
F0.40000000000000002
sg5
F0.59999999999999998
sg6
F0.20000000000000001
sa(dp962
g3
F0.80000000000000004
sg4
F0.40000000000000002
sg5
F0.59999999999999998
sg6
F0.40000000000000002
sa(dp963
g3
F0.80000000000000004
sg4
F0.40000000000000002
sg5
F0.59999999999999998
sg6
F0.59999999999999998
sa(dp964
g3
F0.80000000000000004
sg4
F0.40000000000000002
sg5
F0.59999999999999998
sg6
F0.80000000000000004
sa(dp965
g3
F0.80000000000000004
sg4
F0.40000000000000002
sg5
F0.59999999999999998
sg6
F1
sa(dp966
g3
F0.80000000000000004
sg4
F0.40000000000000002
sg5
F0.80000000000000004
sg6
F0
sa(dp967
g3
F0.80000000000000004
sg4
F0.40000000000000002
sg5
F0.80000000000000004
sg6
F0.20000000000000001
sa(dp968
g3
F0.80000000000000004
sg4
F0.40000000000000002
sg5
F0.80000000000000004
sg6
F0.40000000000000002
sa(dp969
g3
F0.80000000000000004
sg4
F0.40000000000000002
sg5
F0.80000000000000004
sg6
F0.59999999999999998
sa(dp970
g3
F0.80000000000000004
sg4
F0.40000000000000002
sg5
F0.80000000000000004
sg6
F0.80000000000000004
sa(dp971
g3
F0.80000000000000004
sg4
F0.40000000000000002
sg5
F0.80000000000000004
sg6
F1
sa(dp972
g3
F0.80000000000000004
sg4
F0.40000000000000002
sg5
F1
sg6
F0
sa(dp973
g3
F0.80000000000000004
sg4
F0.40000000000000002
sg5
F1
sg6
F0.20000000000000001
sa(dp974
g3
F0.80000000000000004
sg4
F0.40000000000000002
sg5
F1
sg6
F0.40000000000000002
sa(dp975
g3
F0.80000000000000004
sg4
F0.40000000000000002
sg5
F1
sg6
F0.59999999999999998
sa(dp976
g3
F0.80000000000000004
sg4
F0.40000000000000002
sg5
F1
sg6
F0.80000000000000004
sa(dp977
g3
F0.80000000000000004
sg4
F0.40000000000000002
sg5
F1
sg6
F1
sa(dp978
g3
F0.80000000000000004
sg4
F0.59999999999999998
sg5
F0
sg6
F0
sa(dp979
g3
F0.80000000000000004
sg4
F0.59999999999999998
sg5
F0
sg6
F0.20000000000000001
sa(dp980
g3
F0.80000000000000004
sg4
F0.59999999999999998
sg5
F0
sg6
F0.40000000000000002
sa(dp981
g3
F0.80000000000000004
sg4
F0.59999999999999998
sg5
F0
sg6
F0.59999999999999998
sa(dp982
g3
F0.80000000000000004
sg4
F0.59999999999999998
sg5
F0
sg6
F0.80000000000000004
sa(dp983
g3
F0.80000000000000004
sg4
F0.59999999999999998
sg5
F0
sg6
F1
sa(dp984
g3
F0.80000000000000004
sg4
F0.59999999999999998
sg5
F0.20000000000000001
sg6
F0
sa(dp985
g3
F0.80000000000000004
sg4
F0.59999999999999998
sg5
F0.20000000000000001
sg6
F0.20000000000000001
sa(dp986
g3
F0.80000000000000004
sg4
F0.59999999999999998
sg5
F0.20000000000000001
sg6
F0.40000000000000002
sa(dp987
g3
F0.80000000000000004
sg4
F0.59999999999999998
sg5
F0.20000000000000001
sg6
F0.59999999999999998
sa(dp988
g3
F0.80000000000000004
sg4
F0.59999999999999998
sg5
F0.20000000000000001
sg6
F0.80000000000000004
sa(dp989
g3
F0.80000000000000004
sg4
F0.59999999999999998
sg5
F0.20000000000000001
sg6
F1
sa(dp990
g3
F0.80000000000000004
sg4
F0.59999999999999998
sg5
F0.40000000000000002
sg6
F0
sa(dp991
g3
F0.80000000000000004
sg4
F0.59999999999999998
sg5
F0.40000000000000002
sg6
F0.20000000000000001
sa(dp992
g3
F0.80000000000000004
sg4
F0.59999999999999998
sg5
F0.40000000000000002
sg6
F0.40000000000000002
sa(dp993
g3
F0.80000000000000004
sg4
F0.59999999999999998
sg5
F0.40000000000000002
sg6
F0.59999999999999998
sa(dp994
g3
F0.80000000000000004
sg4
F0.59999999999999998
sg5
F0.40000000000000002
sg6
F0.80000000000000004
sa(dp995
g3
F0.80000000000000004
sg4
F0.59999999999999998
sg5
F0.40000000000000002
sg6
F1
sa(dp996
g3
F0.80000000000000004
sg4
F0.59999999999999998
sg5
F0.59999999999999998
sg6
F0
sa(dp997
g3
F0.80000000000000004
sg4
F0.59999999999999998
sg5
F0.59999999999999998
sg6
F0.20000000000000001
sa(dp998
g3
F0.80000000000000004
sg4
F0.59999999999999998
sg5
F0.59999999999999998
sg6
F0.40000000000000002
sa(dp999
g3
F0.80000000000000004
sg4
F0.59999999999999998
sg5
F0.59999999999999998
sg6
F0.59999999999999998
sa(dp1000
g3
F0.80000000000000004
sg4
F0.59999999999999998
sg5
F0.59999999999999998
sg6
F0.80000000000000004
sa(dp1001
g3
F0.80000000000000004
sg4
F0.59999999999999998
sg5
F0.59999999999999998
sg6
F1
sa(dp1002
g3
F0.80000000000000004
sg4
F0.59999999999999998
sg5
F0.80000000000000004
sg6
F0
sa(dp1003
g3
F0.80000000000000004
sg4
F0.59999999999999998
sg5
F0.80000000000000004
sg6
F0.20000000000000001
sa(dp1004
g3
F0.80000000000000004
sg4
F0.59999999999999998
sg5
F0.80000000000000004
sg6
F0.40000000000000002
sa(dp1005
g3
F0.80000000000000004
sg4
F0.59999999999999998
sg5
F0.80000000000000004
sg6
F0.59999999999999998
sa(dp1006
g3
F0.80000000000000004
sg4
F0.59999999999999998
sg5
F0.80000000000000004
sg6
F0.80000000000000004
sa(dp1007
g3
F0.80000000000000004
sg4
F0.59999999999999998
sg5
F0.80000000000000004
sg6
F1
sa(dp1008
g3
F0.80000000000000004
sg4
F0.59999999999999998
sg5
F1
sg6
F0
sa(dp1009
g3
F0.80000000000000004
sg4
F0.59999999999999998
sg5
F1
sg6
F0.20000000000000001
sa(dp1010
g3
F0.80000000000000004
sg4
F0.59999999999999998
sg5
F1
sg6
F0.40000000000000002
sa(dp1011
g3
F0.80000000000000004
sg4
F0.59999999999999998
sg5
F1
sg6
F0.59999999999999998
sa(dp1012
g3
F0.80000000000000004
sg4
F0.59999999999999998
sg5
F1
sg6
F0.80000000000000004
sa(dp1013
g3
F0.80000000000000004
sg4
F0.59999999999999998
sg5
F1
sg6
F1
sa(dp1014
g3
F0.80000000000000004
sg4
F0.80000000000000004
sg5
F0
sg6
F0
sa(dp1015
g3
F0.80000000000000004
sg4
F0.80000000000000004
sg5
F0
sg6
F0.20000000000000001
sa(dp1016
g3
F0.80000000000000004
sg4
F0.80000000000000004
sg5
F0
sg6
F0.40000000000000002
sa(dp1017
g3
F0.80000000000000004
sg4
F0.80000000000000004
sg5
F0
sg6
F0.59999999999999998
sa(dp1018
g3
F0.80000000000000004
sg4
F0.80000000000000004
sg5
F0
sg6
F0.80000000000000004
sa(dp1019
g3
F0.80000000000000004
sg4
F0.80000000000000004
sg5
F0
sg6
F1
sa(dp1020
g3
F0.80000000000000004
sg4
F0.80000000000000004
sg5
F0.20000000000000001
sg6
F0
sa(dp1021
g3
F0.80000000000000004
sg4
F0.80000000000000004
sg5
F0.20000000000000001
sg6
F0.20000000000000001
sa(dp1022
g3
F0.80000000000000004
sg4
F0.80000000000000004
sg5
F0.20000000000000001
sg6
F0.40000000000000002
sa(dp1023
g3
F0.80000000000000004
sg4
F0.80000000000000004
sg5
F0.20000000000000001
sg6
F0.59999999999999998
sa(dp1024
g3
F0.80000000000000004
sg4
F0.80000000000000004
sg5
F0.20000000000000001
sg6
F0.80000000000000004
sa(dp1025
g3
F0.80000000000000004
sg4
F0.80000000000000004
sg5
F0.20000000000000001
sg6
F1
sa(dp1026
g3
F0.80000000000000004
sg4
F0.80000000000000004
sg5
F0.40000000000000002
sg6
F0
sa(dp1027
g3
F0.80000000000000004
sg4
F0.80000000000000004
sg5
F0.40000000000000002
sg6
F0.20000000000000001
sa(dp1028
g3
F0.80000000000000004
sg4
F0.80000000000000004
sg5
F0.40000000000000002
sg6
F0.40000000000000002
sa(dp1029
g3
F0.80000000000000004
sg4
F0.80000000000000004
sg5
F0.40000000000000002
sg6
F0.59999999999999998
sa(dp1030
g3
F0.80000000000000004
sg4
F0.80000000000000004
sg5
F0.40000000000000002
sg6
F0.80000000000000004
sa(dp1031
g3
F0.80000000000000004
sg4
F0.80000000000000004
sg5
F0.40000000000000002
sg6
F1
sa(dp1032
g3
F0.80000000000000004
sg4
F0.80000000000000004
sg5
F0.59999999999999998
sg6
F0
sa(dp1033
g3
F0.80000000000000004
sg4
F0.80000000000000004
sg5
F0.59999999999999998
sg6
F0.20000000000000001
sa(dp1034
g3
F0.80000000000000004
sg4
F0.80000000000000004
sg5
F0.59999999999999998
sg6
F0.40000000000000002
sa(dp1035
g3
F0.80000000000000004
sg4
F0.80000000000000004
sg5
F0.59999999999999998
sg6
F0.59999999999999998
sa(dp1036
g3
F0.80000000000000004
sg4
F0.80000000000000004
sg5
F0.59999999999999998
sg6
F0.80000000000000004
sa(dp1037
g3
F0.80000000000000004
sg4
F0.80000000000000004
sg5
F0.59999999999999998
sg6
F1
sa(dp1038
g3
F0.80000000000000004
sg4
F0.80000000000000004
sg5
F0.80000000000000004
sg6
F0
sa(dp1039
g3
F0.80000000000000004
sg4
F0.80000000000000004
sg5
F0.80000000000000004
sg6
F0.20000000000000001
sa(dp1040
g3
F0.80000000000000004
sg4
F0.80000000000000004
sg5
F0.80000000000000004
sg6
F0.40000000000000002
sa(dp1041
g3
F0.80000000000000004
sg4
F0.80000000000000004
sg5
F0.80000000000000004
sg6
F0.59999999999999998
sa(dp1042
g3
F0.80000000000000004
sg4
F0.80000000000000004
sg5
F0.80000000000000004
sg6
F0.80000000000000004
sa(dp1043
g3
F0.80000000000000004
sg4
F0.80000000000000004
sg5
F0.80000000000000004
sg6
F1
sa(dp1044
g3
F0.80000000000000004
sg4
F0.80000000000000004
sg5
F1
sg6
F0
sa(dp1045
g3
F0.80000000000000004
sg4
F0.80000000000000004
sg5
F1
sg6
F0.20000000000000001
sa(dp1046
g3
F0.80000000000000004
sg4
F0.80000000000000004
sg5
F1
sg6
F0.40000000000000002
sa(dp1047
g3
F0.80000000000000004
sg4
F0.80000000000000004
sg5
F1
sg6
F0.59999999999999998
sa(dp1048
g3
F0.80000000000000004
sg4
F0.80000000000000004
sg5
F1
sg6
F0.80000000000000004
sa(dp1049
g3
F0.80000000000000004
sg4
F0.80000000000000004
sg5
F1
sg6
F1
sa(dp1050
g3
F0.80000000000000004
sg4
F1
sg5
F0
sg6
F0
sa(dp1051
g3
F0.80000000000000004
sg4
F1
sg5
F0
sg6
F0.20000000000000001
sa(dp1052
g3
F0.80000000000000004
sg4
F1
sg5
F0
sg6
F0.40000000000000002
sa(dp1053
g3
F0.80000000000000004
sg4
F1
sg5
F0
sg6
F0.59999999999999998
sa(dp1054
g3
F0.80000000000000004
sg4
F1
sg5
F0
sg6
F0.80000000000000004
sa(dp1055
g3
F0.80000000000000004
sg4
F1
sg5
F0
sg6
F1
sa(dp1056
g3
F0.80000000000000004
sg4
F1
sg5
F0.20000000000000001
sg6
F0
sa(dp1057
g3
F0.80000000000000004
sg4
F1
sg5
F0.20000000000000001
sg6
F0.20000000000000001
sa(dp1058
g3
F0.80000000000000004
sg4
F1
sg5
F0.20000000000000001
sg6
F0.40000000000000002
sa(dp1059
g3
F0.80000000000000004
sg4
F1
sg5
F0.20000000000000001
sg6
F0.59999999999999998
sa(dp1060
g3
F0.80000000000000004
sg4
F1
sg5
F0.20000000000000001
sg6
F0.80000000000000004
sa(dp1061
g3
F0.80000000000000004
sg4
F1
sg5
F0.20000000000000001
sg6
F1
sa(dp1062
g3
F0.80000000000000004
sg4
F1
sg5
F0.40000000000000002
sg6
F0
sa(dp1063
g3
F0.80000000000000004
sg4
F1
sg5
F0.40000000000000002
sg6
F0.20000000000000001
sa(dp1064
g3
F0.80000000000000004
sg4
F1
sg5
F0.40000000000000002
sg6
F0.40000000000000002
sa(dp1065
g3
F0.80000000000000004
sg4
F1
sg5
F0.40000000000000002
sg6
F0.59999999999999998
sa(dp1066
g3
F0.80000000000000004
sg4
F1
sg5
F0.40000000000000002
sg6
F0.80000000000000004
sa(dp1067
g3
F0.80000000000000004
sg4
F1
sg5
F0.40000000000000002
sg6
F1
sa(dp1068
g3
F0.80000000000000004
sg4
F1
sg5
F0.59999999999999998
sg6
F0
sa(dp1069
g3
F0.80000000000000004
sg4
F1
sg5
F0.59999999999999998
sg6
F0.20000000000000001
sa(dp1070
g3
F0.80000000000000004
sg4
F1
sg5
F0.59999999999999998
sg6
F0.40000000000000002
sa(dp1071
g3
F0.80000000000000004
sg4
F1
sg5
F0.59999999999999998
sg6
F0.59999999999999998
sa(dp1072
g3
F0.80000000000000004
sg4
F1
sg5
F0.59999999999999998
sg6
F0.80000000000000004
sa(dp1073
g3
F0.80000000000000004
sg4
F1
sg5
F0.59999999999999998
sg6
F1
sa(dp1074
g3
F0.80000000000000004
sg4
F1
sg5
F0.80000000000000004
sg6
F0
sa(dp1075
g3
F0.80000000000000004
sg4
F1
sg5
F0.80000000000000004
sg6
F0.20000000000000001
sa(dp1076
g3
F0.80000000000000004
sg4
F1
sg5
F0.80000000000000004
sg6
F0.40000000000000002
sa(dp1077
g3
F0.80000000000000004
sg4
F1
sg5
F0.80000000000000004
sg6
F0.59999999999999998
sa(dp1078
g3
F0.80000000000000004
sg4
F1
sg5
F0.80000000000000004
sg6
F0.80000000000000004
sa(dp1079
g3
F0.80000000000000004
sg4
F1
sg5
F0.80000000000000004
sg6
F1
sa(dp1080
g3
F0.80000000000000004
sg4
F1
sg5
F1
sg6
F0
sa(dp1081
g3
F0.80000000000000004
sg4
F1
sg5
F1
sg6
F0.20000000000000001
sa(dp1082
g3
F0.80000000000000004
sg4
F1
sg5
F1
sg6
F0.40000000000000002
sa(dp1083
g3
F0.80000000000000004
sg4
F1
sg5
F1
sg6
F0.59999999999999998
sa(dp1084
g3
F0.80000000000000004
sg4
F1
sg5
F1
sg6
F0.80000000000000004
sa(dp1085
g3
F0.80000000000000004
sg4
F1
sg5
F1
sg6
F1
sa(dp1086
g3
F1
sg4
F0
sg5
F0
sg6
F0
sa(dp1087
g3
F1
sg4
F0
sg5
F0
sg6
F0.20000000000000001
sa(dp1088
g3
F1
sg4
F0
sg5
F0
sg6
F0.40000000000000002
sa(dp1089
g3
F1
sg4
F0
sg5
F0
sg6
F0.59999999999999998
sa(dp1090
g3
F1
sg4
F0
sg5
F0
sg6
F0.80000000000000004
sa(dp1091
g3
F1
sg4
F0
sg5
F0
sg6
F1
sa(dp1092
g3
F1
sg4
F0
sg5
F0.20000000000000001
sg6
F0
sa(dp1093
g3
F1
sg4
F0
sg5
F0.20000000000000001
sg6
F0.20000000000000001
sa(dp1094
g3
F1
sg4
F0
sg5
F0.20000000000000001
sg6
F0.40000000000000002
sa(dp1095
g3
F1
sg4
F0
sg5
F0.20000000000000001
sg6
F0.59999999999999998
sa(dp1096
g3
F1
sg4
F0
sg5
F0.20000000000000001
sg6
F0.80000000000000004
sa(dp1097
g3
F1
sg4
F0
sg5
F0.20000000000000001
sg6
F1
sa(dp1098
g3
F1
sg4
F0
sg5
F0.40000000000000002
sg6
F0
sa(dp1099
g3
F1
sg4
F0
sg5
F0.40000000000000002
sg6
F0.20000000000000001
sa(dp1100
g3
F1
sg4
F0
sg5
F0.40000000000000002
sg6
F0.40000000000000002
sa(dp1101
g3
F1
sg4
F0
sg5
F0.40000000000000002
sg6
F0.59999999999999998
sa(dp1102
g3
F1
sg4
F0
sg5
F0.40000000000000002
sg6
F0.80000000000000004
sa(dp1103
g3
F1
sg4
F0
sg5
F0.40000000000000002
sg6
F1
sa(dp1104
g3
F1
sg4
F0
sg5
F0.59999999999999998
sg6
F0
sa(dp1105
g3
F1
sg4
F0
sg5
F0.59999999999999998
sg6
F0.20000000000000001
sa(dp1106
g3
F1
sg4
F0
sg5
F0.59999999999999998
sg6
F0.40000000000000002
sa(dp1107
g3
F1
sg4
F0
sg5
F0.59999999999999998
sg6
F0.59999999999999998
sa(dp1108
g3
F1
sg4
F0
sg5
F0.59999999999999998
sg6
F0.80000000000000004
sa(dp1109
g3
F1
sg4
F0
sg5
F0.59999999999999998
sg6
F1
sa(dp1110
g3
F1
sg4
F0
sg5
F0.80000000000000004
sg6
F0
sa(dp1111
g3
F1
sg4
F0
sg5
F0.80000000000000004
sg6
F0.20000000000000001
sa(dp1112
g3
F1
sg4
F0
sg5
F0.80000000000000004
sg6
F0.40000000000000002
sa(dp1113
g3
F1
sg4
F0
sg5
F0.80000000000000004
sg6
F0.59999999999999998
sa(dp1114
g3
F1
sg4
F0
sg5
F0.80000000000000004
sg6
F0.80000000000000004
sa(dp1115
g3
F1
sg4
F0
sg5
F0.80000000000000004
sg6
F1
sa(dp1116
g3
F1
sg4
F0
sg5
F1
sg6
F0
sa(dp1117
g3
F1
sg4
F0
sg5
F1
sg6
F0.20000000000000001
sa(dp1118
g3
F1
sg4
F0
sg5
F1
sg6
F0.40000000000000002
sa(dp1119
g3
F1
sg4
F0
sg5
F1
sg6
F0.59999999999999998
sa(dp1120
g3
F1
sg4
F0
sg5
F1
sg6
F0.80000000000000004
sa(dp1121
g3
F1
sg4
F0
sg5
F1
sg6
F1
sa(dp1122
g3
F1
sg4
F0.20000000000000001
sg5
F0
sg6
F0
sa(dp1123
g3
F1
sg4
F0.20000000000000001
sg5
F0
sg6
F0.20000000000000001
sa(dp1124
g3
F1
sg4
F0.20000000000000001
sg5
F0
sg6
F0.40000000000000002
sa(dp1125
g3
F1
sg4
F0.20000000000000001
sg5
F0
sg6
F0.59999999999999998
sa(dp1126
g3
F1
sg4
F0.20000000000000001
sg5
F0
sg6
F0.80000000000000004
sa(dp1127
g3
F1
sg4
F0.20000000000000001
sg5
F0
sg6
F1
sa(dp1128
g3
F1
sg4
F0.20000000000000001
sg5
F0.20000000000000001
sg6
F0
sa(dp1129
g3
F1
sg4
F0.20000000000000001
sg5
F0.20000000000000001
sg6
F0.20000000000000001
sa(dp1130
g3
F1
sg4
F0.20000000000000001
sg5
F0.20000000000000001
sg6
F0.40000000000000002
sa(dp1131
g3
F1
sg4
F0.20000000000000001
sg5
F0.20000000000000001
sg6
F0.59999999999999998
sa(dp1132
g3
F1
sg4
F0.20000000000000001
sg5
F0.20000000000000001
sg6
F0.80000000000000004
sa(dp1133
g3
F1
sg4
F0.20000000000000001
sg5
F0.20000000000000001
sg6
F1
sa(dp1134
g3
F1
sg4
F0.20000000000000001
sg5
F0.40000000000000002
sg6
F0
sa(dp1135
g3
F1
sg4
F0.20000000000000001
sg5
F0.40000000000000002
sg6
F0.20000000000000001
sa(dp1136
g3
F1
sg4
F0.20000000000000001
sg5
F0.40000000000000002
sg6
F0.40000000000000002
sa(dp1137
g3
F1
sg4
F0.20000000000000001
sg5
F0.40000000000000002
sg6
F0.59999999999999998
sa(dp1138
g3
F1
sg4
F0.20000000000000001
sg5
F0.40000000000000002
sg6
F0.80000000000000004
sa(dp1139
g3
F1
sg4
F0.20000000000000001
sg5
F0.40000000000000002
sg6
F1
sa(dp1140
g3
F1
sg4
F0.20000000000000001
sg5
F0.59999999999999998
sg6
F0
sa(dp1141
g3
F1
sg4
F0.20000000000000001
sg5
F0.59999999999999998
sg6
F0.20000000000000001
sa(dp1142
g3
F1
sg4
F0.20000000000000001
sg5
F0.59999999999999998
sg6
F0.40000000000000002
sa(dp1143
g3
F1
sg4
F0.20000000000000001
sg5
F0.59999999999999998
sg6
F0.59999999999999998
sa(dp1144
g3
F1
sg4
F0.20000000000000001
sg5
F0.59999999999999998
sg6
F0.80000000000000004
sa(dp1145
g3
F1
sg4
F0.20000000000000001
sg5
F0.59999999999999998
sg6
F1
sa(dp1146
g3
F1
sg4
F0.20000000000000001
sg5
F0.80000000000000004
sg6
F0
sa(dp1147
g3
F1
sg4
F0.20000000000000001
sg5
F0.80000000000000004
sg6
F0.20000000000000001
sa(dp1148
g3
F1
sg4
F0.20000000000000001
sg5
F0.80000000000000004
sg6
F0.40000000000000002
sa(dp1149
g3
F1
sg4
F0.20000000000000001
sg5
F0.80000000000000004
sg6
F0.59999999999999998
sa(dp1150
g3
F1
sg4
F0.20000000000000001
sg5
F0.80000000000000004
sg6
F0.80000000000000004
sa(dp1151
g3
F1
sg4
F0.20000000000000001
sg5
F0.80000000000000004
sg6
F1
sa(dp1152
g3
F1
sg4
F0.20000000000000001
sg5
F1
sg6
F0
sa(dp1153
g3
F1
sg4
F0.20000000000000001
sg5
F1
sg6
F0.20000000000000001
sa(dp1154
g3
F1
sg4
F0.20000000000000001
sg5
F1
sg6
F0.40000000000000002
sa(dp1155
g3
F1
sg4
F0.20000000000000001
sg5
F1
sg6
F0.59999999999999998
sa(dp1156
g3
F1
sg4
F0.20000000000000001
sg5
F1
sg6
F0.80000000000000004
sa(dp1157
g3
F1
sg4
F0.20000000000000001
sg5
F1
sg6
F1
sa(dp1158
g3
F1
sg4
F0.40000000000000002
sg5
F0
sg6
F0
sa(dp1159
g3
F1
sg4
F0.40000000000000002
sg5
F0
sg6
F0.20000000000000001
sa(dp1160
g3
F1
sg4
F0.40000000000000002
sg5
F0
sg6
F0.40000000000000002
sa(dp1161
g3
F1
sg4
F0.40000000000000002
sg5
F0
sg6
F0.59999999999999998
sa(dp1162
g3
F1
sg4
F0.40000000000000002
sg5
F0
sg6
F0.80000000000000004
sa(dp1163
g3
F1
sg4
F0.40000000000000002
sg5
F0
sg6
F1
sa(dp1164
g3
F1
sg4
F0.40000000000000002
sg5
F0.20000000000000001
sg6
F0
sa(dp1165
g3
F1
sg4
F0.40000000000000002
sg5
F0.20000000000000001
sg6
F0.20000000000000001
sa(dp1166
g3
F1
sg4
F0.40000000000000002
sg5
F0.20000000000000001
sg6
F0.40000000000000002
sa(dp1167
g3
F1
sg4
F0.40000000000000002
sg5
F0.20000000000000001
sg6
F0.59999999999999998
sa(dp1168
g3
F1
sg4
F0.40000000000000002
sg5
F0.20000000000000001
sg6
F0.80000000000000004
sa(dp1169
g3
F1
sg4
F0.40000000000000002
sg5
F0.20000000000000001
sg6
F1
sa(dp1170
g3
F1
sg4
F0.40000000000000002
sg5
F0.40000000000000002
sg6
F0
sa(dp1171
g3
F1
sg4
F0.40000000000000002
sg5
F0.40000000000000002
sg6
F0.20000000000000001
sa(dp1172
g3
F1
sg4
F0.40000000000000002
sg5
F0.40000000000000002
sg6
F0.40000000000000002
sa(dp1173
g3
F1
sg4
F0.40000000000000002
sg5
F0.40000000000000002
sg6
F0.59999999999999998
sa(dp1174
g3
F1
sg4
F0.40000000000000002
sg5
F0.40000000000000002
sg6
F0.80000000000000004
sa(dp1175
g3
F1
sg4
F0.40000000000000002
sg5
F0.40000000000000002
sg6
F1
sa(dp1176
g3
F1
sg4
F0.40000000000000002
sg5
F0.59999999999999998
sg6
F0
sa(dp1177
g3
F1
sg4
F0.40000000000000002
sg5
F0.59999999999999998
sg6
F0.20000000000000001
sa(dp1178
g3
F1
sg4
F0.40000000000000002
sg5
F0.59999999999999998
sg6
F0.40000000000000002
sa(dp1179
g3
F1
sg4
F0.40000000000000002
sg5
F0.59999999999999998
sg6
F0.59999999999999998
sa(dp1180
g3
F1
sg4
F0.40000000000000002
sg5
F0.59999999999999998
sg6
F0.80000000000000004
sa(dp1181
g3
F1
sg4
F0.40000000000000002
sg5
F0.59999999999999998
sg6
F1
sa(dp1182
g3
F1
sg4
F0.40000000000000002
sg5
F0.80000000000000004
sg6
F0
sa(dp1183
g3
F1
sg4
F0.40000000000000002
sg5
F0.80000000000000004
sg6
F0.20000000000000001
sa(dp1184
g3
F1
sg4
F0.40000000000000002
sg5
F0.80000000000000004
sg6
F0.40000000000000002
sa(dp1185
g3
F1
sg4
F0.40000000000000002
sg5
F0.80000000000000004
sg6
F0.59999999999999998
sa(dp1186
g3
F1
sg4
F0.40000000000000002
sg5
F0.80000000000000004
sg6
F0.80000000000000004
sa(dp1187
g3
F1
sg4
F0.40000000000000002
sg5
F0.80000000000000004
sg6
F1
sa(dp1188
g3
F1
sg4
F0.40000000000000002
sg5
F1
sg6
F0
sa(dp1189
g3
F1
sg4
F0.40000000000000002
sg5
F1
sg6
F0.20000000000000001
sa(dp1190
g3
F1
sg4
F0.40000000000000002
sg5
F1
sg6
F0.40000000000000002
sa(dp1191
g3
F1
sg4
F0.40000000000000002
sg5
F1
sg6
F0.59999999999999998
sa(dp1192
g3
F1
sg4
F0.40000000000000002
sg5
F1
sg6
F0.80000000000000004
sa(dp1193
g3
F1
sg4
F0.40000000000000002
sg5
F1
sg6
F1
sa(dp1194
g3
F1
sg4
F0.59999999999999998
sg5
F0
sg6
F0
sa(dp1195
g3
F1
sg4
F0.59999999999999998
sg5
F0
sg6
F0.20000000000000001
sa(dp1196
g3
F1
sg4
F0.59999999999999998
sg5
F0
sg6
F0.40000000000000002
sa(dp1197
g3
F1
sg4
F0.59999999999999998
sg5
F0
sg6
F0.59999999999999998
sa(dp1198
g3
F1
sg4
F0.59999999999999998
sg5
F0
sg6
F0.80000000000000004
sa(dp1199
g3
F1
sg4
F0.59999999999999998
sg5
F0
sg6
F1
sa(dp1200
g3
F1
sg4
F0.59999999999999998
sg5
F0.20000000000000001
sg6
F0
sa(dp1201
g3
F1
sg4
F0.59999999999999998
sg5
F0.20000000000000001
sg6
F0.20000000000000001
sa(dp1202
g3
F1
sg4
F0.59999999999999998
sg5
F0.20000000000000001
sg6
F0.40000000000000002
sa(dp1203
g3
F1
sg4
F0.59999999999999998
sg5
F0.20000000000000001
sg6
F0.59999999999999998
sa(dp1204
g3
F1
sg4
F0.59999999999999998
sg5
F0.20000000000000001
sg6
F0.80000000000000004
sa(dp1205
g3
F1
sg4
F0.59999999999999998
sg5
F0.20000000000000001
sg6
F1
sa(dp1206
g3
F1
sg4
F0.59999999999999998
sg5
F0.40000000000000002
sg6
F0
sa(dp1207
g3
F1
sg4
F0.59999999999999998
sg5
F0.40000000000000002
sg6
F0.20000000000000001
sa(dp1208
g3
F1
sg4
F0.59999999999999998
sg5
F0.40000000000000002
sg6
F0.40000000000000002
sa(dp1209
g3
F1
sg4
F0.59999999999999998
sg5
F0.40000000000000002
sg6
F0.59999999999999998
sa(dp1210
g3
F1
sg4
F0.59999999999999998
sg5
F0.40000000000000002
sg6
F0.80000000000000004
sa(dp1211
g3
F1
sg4
F0.59999999999999998
sg5
F0.40000000000000002
sg6
F1
sa(dp1212
g3
F1
sg4
F0.59999999999999998
sg5
F0.59999999999999998
sg6
F0
sa(dp1213
g3
F1
sg4
F0.59999999999999998
sg5
F0.59999999999999998
sg6
F0.20000000000000001
sa(dp1214
g3
F1
sg4
F0.59999999999999998
sg5
F0.59999999999999998
sg6
F0.40000000000000002
sa(dp1215
g3
F1
sg4
F0.59999999999999998
sg5
F0.59999999999999998
sg6
F0.59999999999999998
sa(dp1216
g3
F1
sg4
F0.59999999999999998
sg5
F0.59999999999999998
sg6
F0.80000000000000004
sa(dp1217
g3
F1
sg4
F0.59999999999999998
sg5
F0.59999999999999998
sg6
F1
sa(dp1218
g3
F1
sg4
F0.59999999999999998
sg5
F0.80000000000000004
sg6
F0
sa(dp1219
g3
F1
sg4
F0.59999999999999998
sg5
F0.80000000000000004
sg6
F0.20000000000000001
sa(dp1220
g3
F1
sg4
F0.59999999999999998
sg5
F0.80000000000000004
sg6
F0.40000000000000002
sa(dp1221
g3
F1
sg4
F0.59999999999999998
sg5
F0.80000000000000004
sg6
F0.59999999999999998
sa(dp1222
g3
F1
sg4
F0.59999999999999998
sg5
F0.80000000000000004
sg6
F0.80000000000000004
sa(dp1223
g3
F1
sg4
F0.59999999999999998
sg5
F0.80000000000000004
sg6
F1
sa(dp1224
g3
F1
sg4
F0.59999999999999998
sg5
F1
sg6
F0
sa(dp1225
g3
F1
sg4
F0.59999999999999998
sg5
F1
sg6
F0.20000000000000001
sa(dp1226
g3
F1
sg4
F0.59999999999999998
sg5
F1
sg6
F0.40000000000000002
sa(dp1227
g3
F1
sg4
F0.59999999999999998
sg5
F1
sg6
F0.59999999999999998
sa(dp1228
g3
F1
sg4
F0.59999999999999998
sg5
F1
sg6
F0.80000000000000004
sa(dp1229
g3
F1
sg4
F0.59999999999999998
sg5
F1
sg6
F1
sa(dp1230
g3
F1
sg4
F0.80000000000000004
sg5
F0
sg6
F0
sa(dp1231
g3
F1
sg4
F0.80000000000000004
sg5
F0
sg6
F0.20000000000000001
sa(dp1232
g3
F1
sg4
F0.80000000000000004
sg5
F0
sg6
F0.40000000000000002
sa(dp1233
g3
F1
sg4
F0.80000000000000004
sg5
F0
sg6
F0.59999999999999998
sa(dp1234
g3
F1
sg4
F0.80000000000000004
sg5
F0
sg6
F0.80000000000000004
sa(dp1235
g3
F1
sg4
F0.80000000000000004
sg5
F0
sg6
F1
sa(dp1236
g3
F1
sg4
F0.80000000000000004
sg5
F0.20000000000000001
sg6
F0
sa(dp1237
g3
F1
sg4
F0.80000000000000004
sg5
F0.20000000000000001
sg6
F0.20000000000000001
sa(dp1238
g3
F1
sg4
F0.80000000000000004
sg5
F0.20000000000000001
sg6
F0.40000000000000002
sa(dp1239
g3
F1
sg4
F0.80000000000000004
sg5
F0.20000000000000001
sg6
F0.59999999999999998
sa(dp1240
g3
F1
sg4
F0.80000000000000004
sg5
F0.20000000000000001
sg6
F0.80000000000000004
sa(dp1241
g3
F1
sg4
F0.80000000000000004
sg5
F0.20000000000000001
sg6
F1
sa(dp1242
g3
F1
sg4
F0.80000000000000004
sg5
F0.40000000000000002
sg6
F0
sa(dp1243
g3
F1
sg4
F0.80000000000000004
sg5
F0.40000000000000002
sg6
F0.20000000000000001
sa(dp1244
g3
F1
sg4
F0.80000000000000004
sg5
F0.40000000000000002
sg6
F0.40000000000000002
sa(dp1245
g3
F1
sg4
F0.80000000000000004
sg5
F0.40000000000000002
sg6
F0.59999999999999998
sa(dp1246
g3
F1
sg4
F0.80000000000000004
sg5
F0.40000000000000002
sg6
F0.80000000000000004
sa(dp1247
g3
F1
sg4
F0.80000000000000004
sg5
F0.40000000000000002
sg6
F1
sa(dp1248
g3
F1
sg4
F0.80000000000000004
sg5
F0.59999999999999998
sg6
F0
sa(dp1249
g3
F1
sg4
F0.80000000000000004
sg5
F0.59999999999999998
sg6
F0.20000000000000001
sa(dp1250
g3
F1
sg4
F0.80000000000000004
sg5
F0.59999999999999998
sg6
F0.40000000000000002
sa(dp1251
g3
F1
sg4
F0.80000000000000004
sg5
F0.59999999999999998
sg6
F0.59999999999999998
sa(dp1252
g3
F1
sg4
F0.80000000000000004
sg5
F0.59999999999999998
sg6
F0.80000000000000004
sa(dp1253
g3
F1
sg4
F0.80000000000000004
sg5
F0.59999999999999998
sg6
F1
sa(dp1254
g3
F1
sg4
F0.80000000000000004
sg5
F0.80000000000000004
sg6
F0
sa(dp1255
g3
F1
sg4
F0.80000000000000004
sg5
F0.80000000000000004
sg6
F0.20000000000000001
sa(dp1256
g3
F1
sg4
F0.80000000000000004
sg5
F0.80000000000000004
sg6
F0.40000000000000002
sa(dp1257
g3
F1
sg4
F0.80000000000000004
sg5
F0.80000000000000004
sg6
F0.59999999999999998
sa(dp1258
g3
F1
sg4
F0.80000000000000004
sg5
F0.80000000000000004
sg6
F0.80000000000000004
sa(dp1259
g3
F1
sg4
F0.80000000000000004
sg5
F0.80000000000000004
sg6
F1
sa(dp1260
g3
F1
sg4
F0.80000000000000004
sg5
F1
sg6
F0
sa(dp1261
g3
F1
sg4
F0.80000000000000004
sg5
F1
sg6
F0.20000000000000001
sa(dp1262
g3
F1
sg4
F0.80000000000000004
sg5
F1
sg6
F0.40000000000000002
sa(dp1263
g3
F1
sg4
F0.80000000000000004
sg5
F1
sg6
F0.59999999999999998
sa(dp1264
g3
F1
sg4
F0.80000000000000004
sg5
F1
sg6
F0.80000000000000004
sa(dp1265
g3
F1
sg4
F0.80000000000000004
sg5
F1
sg6
F1
sa(dp1266
g3
F1
sg4
F1
sg5
F0
sg6
F0
sa(dp1267
g3
F1
sg4
F1
sg5
F0
sg6
F0.20000000000000001
sa(dp1268
g3
F1
sg4
F1
sg5
F0
sg6
F0.40000000000000002
sa(dp1269
g3
F1
sg4
F1
sg5
F0
sg6
F0.59999999999999998
sa(dp1270
g3
F1
sg4
F1
sg5
F0
sg6
F0.80000000000000004
sa(dp1271
g3
F1
sg4
F1
sg5
F0
sg6
F1
sa(dp1272
g3
F1
sg4
F1
sg5
F0.20000000000000001
sg6
F0
sa(dp1273
g3
F1
sg4
F1
sg5
F0.20000000000000001
sg6
F0.20000000000000001
sa(dp1274
g3
F1
sg4
F1
sg5
F0.20000000000000001
sg6
F0.40000000000000002
sa(dp1275
g3
F1
sg4
F1
sg5
F0.20000000000000001
sg6
F0.59999999999999998
sa(dp1276
g3
F1
sg4
F1
sg5
F0.20000000000000001
sg6
F0.80000000000000004
sa(dp1277
g3
F1
sg4
F1
sg5
F0.20000000000000001
sg6
F1
sa(dp1278
g3
F1
sg4
F1
sg5
F0.40000000000000002
sg6
F0
sa(dp1279
g3
F1
sg4
F1
sg5
F0.40000000000000002
sg6
F0.20000000000000001
sa(dp1280
g3
F1
sg4
F1
sg5
F0.40000000000000002
sg6
F0.40000000000000002
sa(dp1281
g3
F1
sg4
F1
sg5
F0.40000000000000002
sg6
F0.59999999999999998
sa(dp1282
g3
F1
sg4
F1
sg5
F0.40000000000000002
sg6
F0.80000000000000004
sa(dp1283
g3
F1
sg4
F1
sg5
F0.40000000000000002
sg6
F1
sa(dp1284
g3
F1
sg4
F1
sg5
F0.59999999999999998
sg6
F0
sa(dp1285
g3
F1
sg4
F1
sg5
F0.59999999999999998
sg6
F0.20000000000000001
sa(dp1286
g3
F1
sg4
F1
sg5
F0.59999999999999998
sg6
F0.40000000000000002
sa(dp1287
g3
F1
sg4
F1
sg5
F0.59999999999999998
sg6
F0.59999999999999998
sa(dp1288
g3
F1
sg4
F1
sg5
F0.59999999999999998
sg6
F0.80000000000000004
sa(dp1289
g3
F1
sg4
F1
sg5
F0.59999999999999998
sg6
F1
sa(dp1290
g3
F1
sg4
F1
sg5
F0.80000000000000004
sg6
F0
sa(dp1291
g3
F1
sg4
F1
sg5
F0.80000000000000004
sg6
F0.20000000000000001
sa(dp1292
g3
F1
sg4
F1
sg5
F0.80000000000000004
sg6
F0.40000000000000002
sa(dp1293
g3
F1
sg4
F1
sg5
F0.80000000000000004
sg6
F0.59999999999999998
sa(dp1294
g3
F1
sg4
F1
sg5
F0.80000000000000004
sg6
F0.80000000000000004
sa(dp1295
g3
F1
sg4
F1
sg5
F0.80000000000000004
sg6
F1
sa(dp1296
g3
F1
sg4
F1
sg5
F1
sg6
F0
sa(dp1297
g3
F1
sg4
F1
sg5
F1
sg6
F0.20000000000000001
sa(dp1298
g3
F1
sg4
F1
sg5
F1
sg6
F0.40000000000000002
sa(dp1299
g3
F1
sg4
F1
sg5
F1
sg6
F0.59999999999999998
sa(dp1300
g3
F1
sg4
F1
sg5
F1
sg6
F0.80000000000000004
sa(dp1301
g3
F1
sg4
F1
sg5
F1
sg6
F1
sacnumpy.core.multiarray
scalar
p1302
(cnumpy
dtype
p1303
(S'i4'
I0
I1
tRp1304
(I3
S'<'
NNNI-1
I-1
I0
tbS'\x00\x00\x00\x00'
tRp1305
tp1306
.